
XMC4500_IO_Task_v3.elf:     file format elf32-littlearm
XMC4500_IO_Task_v3.elf
architecture: arm, flags 0x00000112:
EXEC_P, HAS_SYMS, D_PAGED
start address 0x08000201

Program Header:
0x70000001 off    0x00011658 vaddr 0x08001658 paddr 0x0c001658 align 2**2
         filesz 0x00000010 memsz 0x00000010 flags r--
    LOAD off    0x00010000 vaddr 0x08000000 paddr 0x0c000000 align 2**16
         filesz 0x00001668 memsz 0x00001668 flags r-x
    LOAD off    0x00020870 vaddr 0x20000870 paddr 0x0c001670 align 2**16
         filesz 0x00000008 memsz 0x00000008 flags rw-
    LOAD off    0x00030000 vaddr 0x20000000 paddr 0x20000000 align 2**16
         filesz 0x00000000 memsz 0x00000870 flags rw-
private flags = 5000200: [Version5 EABI] [soft-float ABI]

Sections:
Idx Name          Size      VMA       LMA       File off  Algn  Flags
  0 .text         00001658  08000000  0c000000  00010000  2**2  CONTENTS, ALLOC, LOAD, READONLY, CODE
  1 .ARM.exidx    00000010  08001658  0c001658  00011658  2**2  CONTENTS, ALLOC, LOAD, READONLY, DATA
  2 Stack         00000800  20000000  20000000  00030000  2**0  ALLOC
  3 .bss          00000070  20000800  20000800  00030000  2**2  ALLOC
  4 .data         00000008  20000870  0c001670  00020870  2**2  CONTENTS, ALLOC, LOAD, DATA
  5 .debug_aranges 00000168  00000000  00000000  00020878  2**3  CONTENTS, READONLY, DEBUGGING
  6 .debug_info   00001ae1  00000000  00000000  000209e0  2**0  CONTENTS, READONLY, DEBUGGING
  7 .debug_abbrev 000004d8  00000000  00000000  000224c1  2**0  CONTENTS, READONLY, DEBUGGING
  8 .debug_line   00000e63  00000000  00000000  00022999  2**0  CONTENTS, READONLY, DEBUGGING
  9 .debug_frame  00000480  00000000  00000000  000237fc  2**2  CONTENTS, READONLY, DEBUGGING
 10 .debug_str    00096025  00000000  00000000  00023c7c  2**0  CONTENTS, READONLY, DEBUGGING
 11 .debug_ranges 00000130  00000000  00000000  000b9ca8  2**3  CONTENTS, READONLY, DEBUGGING
 12 .build_attributes 000000e8  00000000  00000000  000b9dd8  2**0  CONTENTS, READONLY
 13 .debug_macro  0001873a  00000000  00000000  000b9ec0  2**0  CONTENTS, READONLY, DEBUGGING
SYMBOL TABLE:
08000000 l    d  .text	00000000 .text
08001658 l    d  .ARM.exidx	00000000 .ARM.exidx
20000000 l    d  Stack	00000000 Stack
20000800 l    d  .bss	00000000 .bss
20000870 l    d  .data	00000000 .data
00000000 l    d  .debug_aranges	00000000 .debug_aranges
00000000 l    d  .debug_info	00000000 .debug_info
00000000 l    d  .debug_abbrev	00000000 .debug_abbrev
00000000 l    d  .debug_line	00000000 .debug_line
00000000 l    d  .debug_frame	00000000 .debug_frame
00000000 l    d  .debug_str	00000000 .debug_str
00000000 l    d  .debug_ranges	00000000 .debug_ranges
00000000 l    d  .build_attributes	00000000 .build_attributes
00000000 l    d  .debug_macro	00000000 .debug_macro
00000000 l    df *ABS*	00000000 ./system/CMSIS/Infineon/XMC4500_series/Source/GCC/startup_XMC4500.o
0800021c l     F .text	00000088 __Xmc4500_Program_Loader
0800023c l       .text	00000000 SKIPCOPY
08000226 l       .text	00000000 STARTCOPY
0800022a l       .text	00000000 COPYLOOP
08000258 l       .text	00000000 SKIPCLEAR
08000244 l       .text	00000000 STARTCLEAR
0800024c l       .text	00000000 CLEARLOOP
e000ed08 l       *ABS*	00000000 SCB_VTOR
58004000 l       *ABS*	00000000 PREF_PCON
5000413c l       *ABS*	00000000 SCU_GCU_PEEN
50004150 l       *ABS*	00000000 SCU_GCU_PEFLAG
58002014 l       *ABS*	00000000 FLASH_FCON
00000000 l    df *ABS*	00000000 System_XMC4500.c
08000c14 l     F .text	000002b8 SystemClockSetup
00000000 l    df *ABS*	00000000 System_LibcStubs.c
20000804 l     O .bss	00000004 heap.4939
20000808 l     O .bss	00000004 HeapBound.4938
00000000 l    df *ABS*	00000000 main.c
080010b4 l     F .text	00000054 NVIC_SetPriority
08001108 l     F .text	00000044 SysTick_Config
20000854 l     O .bss	00000004 ticks.8727
20000858 l     O .bss	00000004 b1.8734
2000085c l     O .bss	00000004 b2.8735
00000000 l    df *ABS*	00000000 init.c
30000000 g       .data	00000000 Heap_Bank2_Start
08000408  w    F .text	00000002 VADC0_C0_3_IRQHandler
08001074  w    F .text	00000010 _getpid
08000588  w    F .text	00000002 DSD0_7_IRQHandler
080006b0  w    F .text	0000000c CCU80_1_IRQHandler_Veneer
08000308  w    F .text	00000002 DebugMon_Handler
080008b6  w    F .text	0000000c LEDTS0_0_IRQHandler_Veneer
080003d8  w    F .text	00000002 VADC0_C0_0_IRQHandler
08000780  w    F .text	00000002 CAN0_4_IRQHandler
0800065c  w    F .text	0000000c CCU42_3_IRQHandler_Veneer
0800052a  w    F .text	0000000e DSD0_1_IRQHandler_Veneer
20000860 g     O .bss	00000004 outix
08000498  w    F .text	00000002 VADC0_G2_0_IRQHandler
20000874 g     O .data	00000004 control
080007fe  w    F .text	00000002 USIC0_5_IRQHandler
0800030a  w    F .text	0000000e DebugMon_Handler_Veneer
080008ee  w    F .text	0000000c USB0_0_IRQHandler_Veneer
08000694  w    F .text	0000000c CCU43_3_IRQHandler_Veneer
08000710  w    F .text	00000002 POSIF0_0_IRQHandler
0800072c  w    F .text	00000002 POSIF1_0_IRQHandler
080002b8  w    F .text	00000002 HardFault_Handler
080008c4  w    F .text	0000000c FCE0_0_IRQHandler_Veneer
08000468  w    F .text	00000002 VADC0_G1_1_IRQHandler
0800114c g     F .text	00000068 SysTick_Handler
08000616  w    F .text	0000000c CCU41_2_IRQHandler_Veneer
0800059a  w    F .text	0000000e DAC0_0_IRQHandler_Veneer
20010000 g       *ABS*	00000000 Heap_Bank1_End
08000318  w    F .text	00000002 PendSV_Handler
080002a8  w    F .text	00000002 NMI_Handler
08001668 g       *ABS*	00000000 __exidx_end
08000836  w    F .text	00000002 USIC1_3_IRQHandler
080005d8  w    F .text	00000002 CCU40_2_IRQHandler
08000774  w    F .text	0000000c CAN0_3_IRQHandler_Veneer
080004da  w    F .text	0000000e VADC0_G3_0_IRQHandler_Veneer
0800053a  w    F .text	0000000e DSD0_2_IRQHandler_Veneer
080005fa  w    F .text	0000000c CCU41_0_IRQHandler_Veneer
00000008 g       *ABS*	00000000 __Xmc4500_Data_Size
0800039a  w    F .text	0000000e ERU1_1_IRQHandler_Veneer
08000338  w    F .text	00000002 SCU_0_IRQHandler
080005ea  w    F .text	0000000e CCU40_3_IRQHandler_Veneer
080007f2  w    F .text	0000000c USIC0_4_IRQHandler_Veneer
080011b4 g     F .text	000000e0 LED_control
08000348  w    F .text	00000002 ERU0_0_IRQHandler
08000916  w    F .text	00000006 AllowPLLInitByStartup
0800089a  w    F .text	0000000c USIC2_4_IRQHandler_Veneer
080013f4 g     F .text	0000007c cb_put
080005f8  w    F .text	00000002 CCU41_0_IRQHandler
0800033a  w    F .text	0000000e SCU_0_IRQHandler_Veneer
08000852  w    F .text	00000002 USIC1_5_IRQHandler
08000558  w    F .text	00000002 DSD0_4_IRQHandler
0800080e  w    F .text	0000000c USIC1_0_IRQHandler_Veneer
08001294 g     F .text	0000012c read_Buttons
080006be  w    F .text	0000000c CCU80_2_IRQHandler_Veneer
20000864 g     O .bss	00000004 full
080006ae  w    F .text	00000002 CCU80_1_IRQHandler
080006e8  w    F .text	0000000c CCU81_1_IRQHandler_Veneer
2000080c g     O .bss	00000040 cb
08000766  w    F .text	0000000c CAN0_2_IRQHandler_Veneer
08001658 g       .text	00000000 __fini_array_end
20000870 g     O .data	00000004 SystemCoreClock
080007d6  w    F .text	0000000c USIC0_2_IRQHandler_Veneer
080008e0  w    F .text	0000000c SDMMC0_0_IRQHandler_Veneer
00010000 g       *ABS*	00000000 Heap_Bank3_Size
080003fa  w    F .text	0000000e VADC0_C0_2_IRQHandler_Veneer
08000720  w    F .text	0000000c POSIF0_1_IRQHandler_Veneer
080006d8  w    F .text	00000002 CCU81_0_IRQHandler
080006a2  w    F .text	0000000c CCU80_0_IRQHandler_Veneer
080004ba  w    F .text	0000000e VADC0_G2_2_IRQHandler_Veneer
08000f48  w    F .text	00000024 _fstat
080002e8  w    F .text	00000002 UsageFault_Handler
0800045a  w    F .text	0000000e VADC0_G1_0_IRQHandler_Veneer
080005da  w    F .text	0000000e CCU40_2_IRQHandler_Veneer
080007b8  w    F .text	00000002 USIC0_0_IRQHandler
20000800 g     O .bss	00000004 __dso_handle
0800081c  w    F .text	0000000c USIC1_1_IRQHandler_Veneer
0800073a  w    F .text	00000002 POSIF1_1_IRQHandler
0800051a  w    F .text	0000000e DSD0_0_IRQHandler_Veneer
0800066a  w    F .text	0000000c CCU43_0_IRQHandler_Veneer
080006f6  w    F .text	0000000c CCU81_2_IRQHandler_Veneer
0800035a  w    F .text	0000000e ERU0_1_IRQHandler_Veneer
0800064e  w    F .text	0000000c CCU42_2_IRQHandler_Veneer
08001658 g       .ARM.exidx	00000000 __exidx_start
08000368  w    F .text	00000002 ERU0_2_IRQHandler
0800109c  w    F .text	00000016 _isatty
080006e6  w    F .text	00000002 CCU81_1_IRQHandler
080003ca  w    F .text	0000000e PMU0_0_IRQHandler_Veneer
08000398  w    F .text	00000002 ERU1_1_IRQHandler
080004c8  w    F .text	00000002 VADC0_G2_3_IRQHandler
08001608 g     F .text	00000050 __libc_init_array
0800040a  w    F .text	0000000e VADC0_C0_3_IRQHandler_Veneer
080004b8  w    F .text	00000002 VADC0_G2_2_IRQHandler
08000ecc  w    F .text	0000001a _open
080004ea  w    F .text	0000000e VADC0_G3_1_IRQHandler_Veneer
08000fac  w    F .text	00000070 _sbrk
080008a8  w    F .text	0000000c USIC2_5_IRQHandler_Veneer
0800065a  w    F .text	00000002 CCU42_3_IRQHandler
08001090  w    F .text	0000000c _init
0800038a  w    F .text	0000000e ERU1_0_IRQHandler_Veneer
08000378  w    F .text	00000002 ERU0_3_IRQHandler
08000568  w    F .text	00000002 DSD0_5_IRQHandler
20000800 g       Stack	00000000 __Xmc4500_stack
0800046a  w    F .text	0000000e VADC0_G1_1_IRQHandler_Veneer
0800101c  w    F .text	00000016 _times
0800041a  w    F .text	0000000e VADC0_G0_0_IRQHandler_Veneer
0800079c  w    F .text	00000002 CAN0_6_IRQHandler
08000678  w    F .text	0000000c CCU43_1_IRQHandler_Veneer
08000668  w    F .text	00000002 CCU43_0_IRQHandler
0800037a  w    F .text	0000000e ERU0_3_IRQHandler_Veneer
20000870 g       .data	00000000 __Xmc4500_sData
08000428  w    F .text	00000002 VADC0_G0_1_IRQHandler
080006f4  w    F .text	00000002 CCU81_2_IRQHandler
0800055a  w    F .text	0000000e DSD0_4_IRQHandler_Veneer
08000632  w    F .text	0000000c CCU42_0_IRQHandler_Veneer
080006cc  w    F .text	0000000c CCU80_3_IRQHandler_Veneer
08000898  w    F .text	00000002 USIC2_4_IRQHandler
08000702  w    F .text	00000002 CCU81_3_IRQHandler
20000878 g       .data	00000000 __Xmc4500_heap_start
080006da  w    F .text	0000000c CCU81_0_IRQHandler_Veneer
0800063e  w    F .text	00000002 CCU42_1_IRQHandler
2000084c g     O .bss	00000004 mode
20000868 g     O .bss	00000004 inix
08000712  w    F .text	0000000c POSIF0_0_IRQHandler_Veneer
0800032a  w    F .text	0000000e SysTick_Handler_Veneer
0800081a  w    F .text	00000002 USIC1_1_IRQHandler
080005ca  w    F .text	0000000e CCU40_1_IRQHandler_Veneer
0800044a  w    F .text	0000000e VADC0_G0_3_IRQHandler_Veneer
080007c8  w    F .text	0000000c USIC0_1_IRQHandler_Veneer
080008a6  w    F .text	00000002 USIC2_5_IRQHandler
080005b8  w    F .text	00000002 CCU40_0_IRQHandler
20000878 g       .data	00000000 __Xmc4500_eData
08000000 g       .text	00000000 sText
08000704  w    F .text	0000000c CCU81_3_IRQHandler_Veneer
08000748  w    F .text	00000002 CAN0_0_IRQHandler
080013c0 g     F .text	00000034 cb_init
08000388  w    F .text	00000002 ERU1_0_IRQHandler
080002da  w    F .text	0000000e BusFault_Handler_Veneer
20000870 g       .bss	00000000 __Xmc4500_eBSS
0800064c  w    F .text	00000002 CCU42_2_IRQHandler
08000844  w    F .text	00000002 USIC1_4_IRQHandler
0800043a  w    F .text	0000000e VADC0_G0_2_IRQHandler_Veneer
08001034  w    F .text	00000016 _wait
080003b8  w    F .text	00000002 ERU1_3_IRQHandler
08000ee8  w    F .text	0000001a _lseek
0800080c  w    F .text	00000002 USIC1_0_IRQHandler
0800071e  w    F .text	00000002 POSIF0_1_IRQHandler
08000418  w    F .text	00000002 VADC0_G0_0_IRQHandler
08000538  w    F .text	00000002 DSD0_2_IRQHandler
080006ca  w    F .text	00000002 CCU80_3_IRQHandler
08000622  w    F .text	00000002 CCU41_3_IRQHandler
0800034a  w    F .text	0000000e ERU0_0_IRQHandler_Veneer
08000870  w    F .text	0000000c USIC2_1_IRQHandler_Veneer
20000878 g       *ABS*	00000000 Heap_Bank1_Start
0800048a  w    F .text	0000000e VADC0_G1_3_IRQHandler_Veneer
080006bc  w    F .text	00000002 CCU80_2_IRQHandler
08000846  w    F .text	0000000c USIC1_4_IRQHandler_Veneer
08000488  w    F .text	00000002 VADC0_G1_3_IRQHandler
080007e4  w    F .text	0000000c USIC0_3_IRQHandler_Veneer
0c001670 g       Stack	00000000 eROData
00000800 g       *ABS*	00000000 stack_size
08000800  w    F .text	0000000c USIC0_5_IRQHandler_Veneer
08000448  w    F .text	00000002 VADC0_G0_3_IRQHandler
0800087e  w    F .text	0000000c USIC2_2_IRQHandler_Veneer
080008d0  w    F .text	00000002 GPDMA0_0_IRQHandler
08000854  w    F .text	0000000c USIC1_5_IRQHandler_Veneer
080002aa  w    F .text	0000000e NMI_Handler_Veneer
080003c8  w    F .text	00000002 PMU0_0_IRQHandler
080007aa  w    F .text	00000002 CAN0_7_IRQHandler
10000000 g       .data	00000000 Heap_Bank3_Start
08000528  w    F .text	00000002 DSD0_1_IRQHandler
08000614  w    F .text	00000002 CCU41_2_IRQHandler
08001658 g       .text	00000000 __fini_array_start
080003e8  w    F .text	00000002 VADC0_C0_1_IRQHandler
080002fa  w    F .text	0000000e SVC_Handler_Veneer
08000684  w    F .text	00000002 CCU43_2_IRQHandler
08000686  w    F .text	0000000c CCU43_2_IRQHandler_Veneer
0800087c  w    F .text	00000002 USIC2_2_IRQHandler
080003ea  w    F .text	0000000e VADC0_C0_1_IRQHandler_Veneer
080002c8  w    F .text	00000002 MemManage_Handler
080004e8  w    F .text	00000002 VADC0_G3_1_IRQHandler
080014ec g     F .text	0000011c main
08000f6c  w    F .text	00000026 _link
08000598  w    F .text	00000002 DAC0_0_IRQHandler
080003da  w    F .text	0000000e VADC0_C0_0_IRQHandler_Veneer
0800082a  w    F .text	0000000c USIC1_2_IRQHandler_Veneer
080005ba  w    F .text	0000000e CCU40_0_IRQHandler_Veneer
080002f8  w    F .text	00000002 SVC_Handler
0800072e  w    F .text	0000000c POSIF1_0_IRQHandler_Veneer
08000508  w    F .text	00000002 VADC0_G3_3_IRQHandler
08001658 g       .text	00000000 __init_array_end
080003a8  w    F .text	00000002 ERU1_2_IRQHandler
08000606  w    F .text	00000002 CCU41_1_IRQHandler
08000608  w    F .text	0000000c CCU41_1_IRQHandler_Veneer
08000200 g     F .text	0000001c __Xmc4500_reset_cortex_m
08000578  w    F .text	00000002 DSD0_6_IRQHandler
08000676  w    F .text	00000002 CCU43_1_IRQHandler
08000838  w    F .text	0000000c USIC1_3_IRQHandler_Veneer
08000478  w    F .text	00000002 VADC0_G1_2_IRQHandler
0800088a  w    F .text	00000002 USIC2_3_IRQHandler
080003aa  w    F .text	0000000e ERU1_2_IRQHandler_Veneer
08000764  w    F .text	00000002 CAN0_2_IRQHandler
08000ad4 g     F .text	00000064 SystemInit
08000000 g     O .text	00000200 __Xmc4500_interrupt_vector_cortex_m
080008fc  w    F .text	0000000c ETH0_0_IRQHandler_Veneer
08000640  w    F .text	0000000c CCU42_1_IRQHandler_Veneer
08000860  w    F .text	00000002 USIC2_0_IRQHandler
0800050a  w    F .text	0000000e VADC0_G3_3_IRQHandler_Veneer
08000790  w    F .text	0000000c CAN0_5_IRQHandler_Veneer
0800058a  w    F .text	0000000e DSD0_7_IRQHandler_Veneer
08000438  w    F .text	00000002 VADC0_G0_2_IRQHandler
0800057a  w    F .text	0000000e DSD0_6_IRQHandler_Veneer
08001470 g     F .text	0000007c cb_get
0800079e  w    F .text	0000000c CAN0_6_IRQHandler_Veneer
0800090a  w    F .text	0000000c GPDMA1_0_IRQHandler_Veneer
080002a4  w    F .text	00000004 SystemInit_DAVE3
20000850 g     O .bss	00000004 update_LED
080008d2  w    F .text	0000000c GPDMA0_0_IRQHandler_Veneer
08001658 g       .text	00000000 __preinit_array_end
080004a8  w    F .text	00000002 VADC0_G2_1_IRQHandler
08000772  w    F .text	00000002 CAN0_3_IRQHandler
08000624  w    F .text	0000000c CCU41_3_IRQHandler_Veneer
080008fa  w    F .text	00000002 ETH0_0_IRQHandler
08000f94  w    F .text	00000016 _unlink
080007e2  w    F .text	00000002 USIC0_3_IRQHandler
08000518  w    F .text	00000002 DSD0_0_IRQHandler
080002ca  w    F .text	0000000e MemManage_Handler_Veneer
08001064  w    F .text	00000010 _fork
080002ba  w    F .text	0000000e HardFault_Handler_Veneer
080007ba  w    F .text	0000000c USIC0_0_IRQHandler_Veneer
08000782  w    F .text	0000000c CAN0_4_IRQHandler_Veneer
080002ea  w    F .text	0000000e UsageFault_Handler_Veneer
080003f8  w    F .text	00000002 VADC0_C0_2_IRQHandler
0800042a  w    F .text	0000000e VADC0_G0_1_IRQHandler_Veneer
08000630  w    F .text	00000002 CCU42_0_IRQHandler
0800031a  w    F .text	0000000e PendSV_Handler_Veneer
08000f1c  w    F .text	0000001a _write
20010000 g       .data	00000000 __Xmc4500_heap_end
080008c2  w    F .text	00000002 FCE0_0_IRQHandler
08000458  w    F .text	00000002 VADC0_G1_0_IRQHandler
0800056a  w    F .text	0000000e DSD0_5_IRQHandler_Veneer
080008ec  w    F .text	00000002 USB0_0_IRQHandler
08000b38 g     F .text	000000dc SystemCoreClockUpdate
0800078e  w    F .text	00000002 CAN0_5_IRQHandler
08000758  w    F .text	0000000c CAN0_1_IRQHandler_Veneer
080004ca  w    F .text	0000000e VADC0_G2_3_IRQHandler_Veneer
0800054a  w    F .text	0000000e DSD0_3_IRQHandler_Veneer
080006a0  w    F .text	00000002 CCU80_0_IRQHandler
0800104c  w    F .text	00000018 _kill
08001658 g       .text	00000000 __extab_start
00000070 g       *ABS*	00000000 __Xmc4500_BSS_Size
080005c8  w    F .text	00000002 CCU40_1_IRQHandler
0800086e  w    F .text	00000002 USIC2_1_IRQHandler
0000f788 g       *ABS*	00000000 Heap_Bank1_Size
08000f04  w    F .text	00000018 _read
08001658 g       .text	00000000 __init_array_start
080007c6  w    F .text	00000002 USIC0_1_IRQHandler
080007ac  w    F .text	0000000c CAN0_7_IRQHandler_Veneer
080004f8  w    F .text	00000002 VADC0_G3_2_IRQHandler
20000800 g       .bss	00000000 __Xmc4500_sBSS
00008000 g       *ABS*	00000000 Heap_Bank2_Size
080005e8  w    F .text	00000002 CCU40_3_IRQHandler
08001084  w    F .text	0000000a _exit
080005aa  w    F .text	0000000e DAC0_1_IRQHandler_Veneer
080002d8  w    F .text	00000002 BusFault_Handler
080008b4  w    F .text	00000002 LEDTS0_0_IRQHandler
080007f0  w    F .text	00000002 USIC0_4_IRQHandler
08000692  w    F .text	00000002 CCU43_3_IRQHandler
0800049a  w    F .text	0000000e VADC0_G2_0_IRQHandler_Veneer
08000358  w    F .text	00000002 ERU0_1_IRQHandler
0800073c  w    F .text	0000000c POSIF1_1_IRQHandler_Veneer
080004d8  w    F .text	00000002 VADC0_G3_0_IRQHandler
08001658 g       *ABS*	00000000 __extab_end
0800047a  w    F .text	0000000e VADC0_G1_2_IRQHandler_Veneer
08000828  w    F .text	00000002 USIC1_2_IRQHandler
080003ba  w    F .text	0000000e ERU1_3_IRQHandler_Veneer
08001658 g       .text	00000000 __preinit_array_start
08000548  w    F .text	00000002 DSD0_3_IRQHandler
080008de  w    F .text	00000002 SDMMC0_0_IRQHandler
080004fa  w    F .text	0000000e VADC0_G3_2_IRQHandler_Veneer
08000756  w    F .text	00000002 CAN0_1_IRQHandler
080007d4  w    F .text	00000002 USIC0_2_IRQHandler
0800036a  w    F .text	0000000e ERU0_2_IRQHandler_Veneer
080005a8  w    F .text	00000002 DAC0_1_IRQHandler
08000862  w    F .text	0000000c USIC2_0_IRQHandler_Veneer
08000908  w    F .text	00000002 GPDMA1_0_IRQHandler
080004aa  w    F .text	0000000e VADC0_G2_1_IRQHandler_Veneer
08000f38  w    F .text	00000010 _close
0800074a  w    F .text	0000000c CAN0_0_IRQHandler_Veneer
0800088c  w    F .text	0000000c USIC2_3_IRQHandler_Veneer
2000086c g     O .bss	00000004 empty



Disassembly of section .text:

08000000 <__Xmc4500_interrupt_vector_cortex_m>:
sText():
 8000000:	00 08 00 20 01 02 00 08 ab 02 00 08 bb 02 00 08     ... ............
 8000010:	cb 02 00 08 db 02 00 08 eb 02 00 08 00 00 00 00     ................
	...
 800002c:	fb 02 00 08 0b 03 00 08 00 00 00 00 1b 03 00 08     ................
 800003c:	2b 03 00 08 3b 03 00 08 4b 03 00 08 5b 03 00 08     +...;...K...[...
 800004c:	6b 03 00 08 7b 03 00 08 8b 03 00 08 9b 03 00 08     k...{...........
 800005c:	ab 03 00 08 bb 03 00 08 00 00 00 00 00 00 00 00     ................
 800006c:	00 00 00 00 cb 03 00 08 00 00 00 00 db 03 00 08     ................
 800007c:	eb 03 00 08 fb 03 00 08 0b 04 00 08 1b 04 00 08     ................
 800008c:	2b 04 00 08 3b 04 00 08 4b 04 00 08 5b 04 00 08     +...;...K...[...
 800009c:	6b 04 00 08 7b 04 00 08 8b 04 00 08 9b 04 00 08     k...{...........
 80000ac:	ab 04 00 08 bb 04 00 08 cb 04 00 08 db 04 00 08     ................
 80000bc:	eb 04 00 08 fb 04 00 08 0b 05 00 08 1b 05 00 08     ................
 80000cc:	2b 05 00 08 3b 05 00 08 4b 05 00 08 5b 05 00 08     +...;...K...[...
 80000dc:	6b 05 00 08 7b 05 00 08 8b 05 00 08 9b 05 00 08     k...{...........
 80000ec:	ab 05 00 08 bb 05 00 08 cb 05 00 08 db 05 00 08     ................
 80000fc:	eb 05 00 08 fb 05 00 08 09 06 00 08 17 06 00 08     ................
 800010c:	25 06 00 08 33 06 00 08 41 06 00 08 4f 06 00 08     %...3...A...O...
 800011c:	5d 06 00 08 6b 06 00 08 79 06 00 08 87 06 00 08     ]...k...y.......
 800012c:	95 06 00 08 a3 06 00 08 b1 06 00 08 bf 06 00 08     ................
 800013c:	cd 06 00 08 db 06 00 08 e9 06 00 08 f7 06 00 08     ................
 800014c:	05 07 00 08 13 07 00 08 21 07 00 08 2f 07 00 08     ........!.../...
 800015c:	3d 07 00 08 00 00 00 00 00 00 00 00 00 00 00 00     =...............
 800016c:	00 00 00 00 4b 07 00 08 59 07 00 08 67 07 00 08     ....K...Y...g...
 800017c:	75 07 00 08 83 07 00 08 91 07 00 08 9f 07 00 08     u...............
 800018c:	ad 07 00 08 bb 07 00 08 c9 07 00 08 d7 07 00 08     ................
 800019c:	e5 07 00 08 f3 07 00 08 01 08 00 08 0f 08 00 08     ................
 80001ac:	1d 08 00 08 2b 08 00 08 39 08 00 08 47 08 00 08     ....+...9...G...
 80001bc:	55 08 00 08 63 08 00 08 71 08 00 08 7f 08 00 08     U...c...q.......
 80001cc:	8d 08 00 08 9b 08 00 08 a9 08 00 08 b7 08 00 08     ................
 80001dc:	00 00 00 00 c5 08 00 08 d3 08 00 08 e1 08 00 08     ................
 80001ec:	ef 08 00 08 fd 08 00 08 00 00 00 00 0b 09 00 08     ................
 80001fc:	00 00 00 00                                         ....

08000200 <__Xmc4500_reset_cortex_m>:
__Xmc4500_reset_cortex_m():
D:\Software\workspace_2\XMC4500_IO_Flat\Debug/../system/CMSIS/Infineon/XMC4500_series/Source/GCC/startup_XMC4500.asm:258
__Xmc4500_reset_cortex_m:
    .fnstart

    /* C routines are likely to be called. Setup the stack now */
    /* This is already setup by BootROM,hence this step is optional */ 
    LDR SP,=__Xmc4500_stack
 8000200:	f8df d00c 	ldr.w	sp, [pc, #12]	; 8000210 <__Xmc4500_reset_cortex_m+0x10>
D:\Software\workspace_2\XMC4500_IO_Flat\Debug/../system/CMSIS/Infineon/XMC4500_series/Source/GCC/startup_XMC4500.asm:261

    /* Clock tree, External memory setup etc may be done here */    
    LDR     R0, =SystemInit
 8000204:	4803      	ldr	r0, [pc, #12]	; (8000214 <__Xmc4500_reset_cortex_m+0x14>)
D:\Software\workspace_2\XMC4500_IO_Flat\Debug/../system/CMSIS/Infineon/XMC4500_series/Source/GCC/startup_XMC4500.asm:262
    BLX     R0
 8000206:	4780      	blx	r0
D:\Software\workspace_2\XMC4500_IO_Flat\Debug/../system/CMSIS/Infineon/XMC4500_series/Source/GCC/startup_XMC4500.asm:268

/* 
   SystemInit_DAVE3() is provided by DAVE3 code generation engine. It is  
   weakly defined here though for a potential override.
*/
    LDR     R0, =SystemInit_DAVE3     
 8000208:	4803      	ldr	r0, [pc, #12]	; (8000218 <__Xmc4500_reset_cortex_m+0x18>)
D:\Software\workspace_2\XMC4500_IO_Flat\Debug/../system/CMSIS/Infineon/XMC4500_series/Source/GCC/startup_XMC4500.asm:269
    BLX     R0
 800020a:	4780      	blx	r0
D:\Software\workspace_2\XMC4500_IO_Flat\Debug/../system/CMSIS/Infineon/XMC4500_series/Source/GCC/startup_XMC4500.asm:271

    B       __Xmc4500_Program_Loader 
 800020c:	f000 b806 	b.w	800021c <__Xmc4500_Program_Loader>
D:\Software\workspace_2\XMC4500_IO_Flat\Debug/../system/CMSIS/Infineon/XMC4500_series/Source/GCC/startup_XMC4500.asm:258
__Xmc4500_reset_cortex_m:
    .fnstart

    /* C routines are likely to be called. Setup the stack now */
    /* This is already setup by BootROM,hence this step is optional */ 
    LDR SP,=__Xmc4500_stack
 8000210:	20000800 	.word	0x20000800
D:\Software\workspace_2\XMC4500_IO_Flat\Debug/../system/CMSIS/Infineon/XMC4500_series/Source/GCC/startup_XMC4500.asm:261

    /* Clock tree, External memory setup etc may be done here */    
    LDR     R0, =SystemInit
 8000214:	08000ad5 	.word	0x08000ad5
D:\Software\workspace_2\XMC4500_IO_Flat\Debug/../system/CMSIS/Infineon/XMC4500_series/Source/GCC/startup_XMC4500.asm:268

/* 
   SystemInit_DAVE3() is provided by DAVE3 code generation engine. It is  
   weakly defined here though for a potential override.
*/
    LDR     R0, =SystemInit_DAVE3     
 8000218:	080002a5 	.word	0x080002a5

0800021c <__Xmc4500_Program_Loader>:
__Xmc4500_Program_Loader():
D:\Software\workspace_2\XMC4500_IO_Flat\Debug/../system/CMSIS/Infineon/XMC4500_series/Source/GCC/startup_XMC4500.asm:287
   .fnstart
   /* Memories are accessible now*/
   
   /* DATA COPY */
   /* R0 = Start address, R1 = Destination address, R2 = Size */
   LDR R0, =eROData
 800021c:	4816      	ldr	r0, [pc, #88]	; (8000278 <SKIPCLEAR+0x20>)
D:\Software\workspace_2\XMC4500_IO_Flat\Debug/../system/CMSIS/Infineon/XMC4500_series/Source/GCC/startup_XMC4500.asm:288
   LDR R1, =__Xmc4500_sData
 800021e:	4917      	ldr	r1, [pc, #92]	; (800027c <SKIPCLEAR+0x24>)
D:\Software\workspace_2\XMC4500_IO_Flat\Debug/../system/CMSIS/Infineon/XMC4500_series/Source/GCC/startup_XMC4500.asm:289
   LDR R2, =__Xmc4500_Data_Size
 8000220:	4a17      	ldr	r2, [pc, #92]	; (8000280 <SKIPCLEAR+0x28>)
D:\Software\workspace_2\XMC4500_IO_Flat\Debug/../system/CMSIS/Infineon/XMC4500_series/Source/GCC/startup_XMC4500.asm:292

   /* Is there anything to be copied? */
   CMP R2,#0
 8000222:	2a00      	cmp	r2, #0
D:\Software\workspace_2\XMC4500_IO_Flat\Debug/../system/CMSIS/Infineon/XMC4500_series/Source/GCC/startup_XMC4500.asm:293
   BEQ SKIPCOPY
 8000224:	d00a      	beq.n	800023c <SKIPCOPY>

08000226 <STARTCOPY>:
STARTCOPY():
D:\Software\workspace_2\XMC4500_IO_Flat\Debug/../system/CMSIS/Infineon/XMC4500_series/Source/GCC/startup_XMC4500.asm:300
STARTCOPY:
   /* 
      R2 contains byte count. Change it to word count. It is ensured in the 
      linker script that the length is always word aligned.
   */
   LSR R2,R2,#2 /* Divide by 4 to obtain word count */
 8000226:	ea4f 0292 	mov.w	r2, r2, lsr #2

0800022a <COPYLOOP>:
COPYLOOP():
D:\Software\workspace_2\XMC4500_IO_Flat\Debug/../system/CMSIS/Infineon/XMC4500_series/Source/GCC/startup_XMC4500.asm:304

   /* The proverbial loop from the schooldays */
COPYLOOP:
   LDR R3,[R0]
 800022a:	6803      	ldr	r3, [r0, #0]
D:\Software\workspace_2\XMC4500_IO_Flat\Debug/../system/CMSIS/Infineon/XMC4500_series/Source/GCC/startup_XMC4500.asm:305
   STR R3,[R1]
 800022c:	600b      	str	r3, [r1, #0]
D:\Software\workspace_2\XMC4500_IO_Flat\Debug/../system/CMSIS/Infineon/XMC4500_series/Source/GCC/startup_XMC4500.asm:306
   SUBS R2,#1
 800022e:	3a01      	subs	r2, #1
D:\Software\workspace_2\XMC4500_IO_Flat\Debug/../system/CMSIS/Infineon/XMC4500_series/Source/GCC/startup_XMC4500.asm:307
   BEQ SKIPCOPY
 8000230:	d004      	beq.n	800023c <SKIPCOPY>
D:\Software\workspace_2\XMC4500_IO_Flat\Debug/../system/CMSIS/Infineon/XMC4500_series/Source/GCC/startup_XMC4500.asm:308
   ADD R0,#4
 8000232:	f100 0004 	add.w	r0, r0, #4
D:\Software\workspace_2\XMC4500_IO_Flat\Debug/../system/CMSIS/Infineon/XMC4500_series/Source/GCC/startup_XMC4500.asm:309
   ADD R1,#4
 8000236:	f101 0104 	add.w	r1, r1, #4
D:\Software\workspace_2\XMC4500_IO_Flat\Debug/../system/CMSIS/Infineon/XMC4500_series/Source/GCC/startup_XMC4500.asm:310
   B COPYLOOP
 800023a:	e7f6      	b.n	800022a <COPYLOOP>

0800023c <SKIPCOPY>:
SKIPCOPY():
D:\Software\workspace_2\XMC4500_IO_Flat\Debug/../system/CMSIS/Infineon/XMC4500_series/Source/GCC/startup_XMC4500.asm:314
    
SKIPCOPY:
   /* BSS CLEAR */
   LDR R0, =__Xmc4500_sBSS     /* Start of BSS */
 800023c:	4811      	ldr	r0, [pc, #68]	; (8000284 <SKIPCLEAR+0x2c>)
D:\Software\workspace_2\XMC4500_IO_Flat\Debug/../system/CMSIS/Infineon/XMC4500_series/Source/GCC/startup_XMC4500.asm:315
   LDR R1, =__Xmc4500_BSS_Size /* BSS size in bytes */
 800023e:	4912      	ldr	r1, [pc, #72]	; (8000288 <SKIPCLEAR+0x30>)
D:\Software\workspace_2\XMC4500_IO_Flat\Debug/../system/CMSIS/Infineon/XMC4500_series/Source/GCC/startup_XMC4500.asm:318

   /* Find out if there are items assigned to BSS */   
   CMP R1,#0 
 8000240:	2900      	cmp	r1, #0
D:\Software\workspace_2\XMC4500_IO_Flat\Debug/../system/CMSIS/Infineon/XMC4500_series/Source/GCC/startup_XMC4500.asm:319
   BEQ SKIPCLEAR
 8000242:	d009      	beq.n	8000258 <SKIPCLEAR>

08000244 <STARTCLEAR>:
STARTCLEAR():
D:\Software\workspace_2\XMC4500_IO_Flat\Debug/../system/CMSIS/Infineon/XMC4500_series/Source/GCC/startup_XMC4500.asm:322

STARTCLEAR:
   LSR R1,R1,#2            /* BSS size in words */
 8000244:	ea4f 0191 	mov.w	r1, r1, lsr #2
D:\Software\workspace_2\XMC4500_IO_Flat\Debug/../system/CMSIS/Infineon/XMC4500_series/Source/GCC/startup_XMC4500.asm:324
   
   MOV R2,#0
 8000248:	f04f 0200 	mov.w	r2, #0

0800024c <CLEARLOOP>:
CLEARLOOP():
D:\Software\workspace_2\XMC4500_IO_Flat\Debug/../system/CMSIS/Infineon/XMC4500_series/Source/GCC/startup_XMC4500.asm:326
CLEARLOOP:
   STR R2,[R0]
 800024c:	6002      	str	r2, [r0, #0]
D:\Software\workspace_2\XMC4500_IO_Flat\Debug/../system/CMSIS/Infineon/XMC4500_series/Source/GCC/startup_XMC4500.asm:327
   SUBS R1,#1
 800024e:	3901      	subs	r1, #1
D:\Software\workspace_2\XMC4500_IO_Flat\Debug/../system/CMSIS/Infineon/XMC4500_series/Source/GCC/startup_XMC4500.asm:328
   BEQ SKIPCLEAR
 8000250:	d002      	beq.n	8000258 <SKIPCLEAR>
D:\Software\workspace_2\XMC4500_IO_Flat\Debug/../system/CMSIS/Infineon/XMC4500_series/Source/GCC/startup_XMC4500.asm:329
   ADD R0,#4
 8000252:	f100 0004 	add.w	r0, r0, #4
D:\Software\workspace_2\XMC4500_IO_Flat\Debug/../system/CMSIS/Infineon/XMC4500_series/Source/GCC/startup_XMC4500.asm:330
   B CLEARLOOP
 8000256:	e7f9      	b.n	800024c <CLEARLOOP>

08000258 <SKIPCLEAR>:
SKIPCLEAR():
D:\Software\workspace_2\XMC4500_IO_Flat\Debug/../system/CMSIS/Infineon/XMC4500_series/Source/GCC/startup_XMC4500.asm:335
    
SKIPCLEAR:
   /* Remap vector table */
   /* This is already setup by BootROM,hence this step is optional */ 
   LDR R0, =__Xmc4500_interrupt_vector_cortex_m 
 8000258:	480c      	ldr	r0, [pc, #48]	; (800028c <SKIPCLEAR+0x34>)
D:\Software\workspace_2\XMC4500_IO_Flat\Debug/../system/CMSIS/Infineon/XMC4500_series/Source/GCC/startup_XMC4500.asm:336
   LDR R1, =SCB_VTOR
 800025a:	490d      	ldr	r1, [pc, #52]	; (8000290 <SKIPCLEAR+0x38>)
D:\Software\workspace_2\XMC4500_IO_Flat\Debug/../system/CMSIS/Infineon/XMC4500_series/Source/GCC/startup_XMC4500.asm:337
   STR R0,[R1]
 800025c:	6008      	str	r0, [r1, #0]
D:\Software\workspace_2\XMC4500_IO_Flat\Debug/../system/CMSIS/Infineon/XMC4500_series/Source/GCC/startup_XMC4500.asm:340
   
   /* Update System Clock */
   LDR R0,=SystemCoreClockUpdate
 800025e:	480d      	ldr	r0, [pc, #52]	; (8000294 <SKIPCLEAR+0x3c>)
D:\Software\workspace_2\XMC4500_IO_Flat\Debug/../system/CMSIS/Infineon/XMC4500_series/Source/GCC/startup_XMC4500.asm:341
   BLX R0
 8000260:	4780      	blx	r0
D:\Software\workspace_2\XMC4500_IO_Flat\Debug/../system/CMSIS/Infineon/XMC4500_series/Source/GCC/startup_XMC4500.asm:344
 
   /* C++ : Call global constructors */
   LDR R0,=__libc_init_array
 8000262:	480d      	ldr	r0, [pc, #52]	; (8000298 <SKIPCLEAR+0x40>)
D:\Software\workspace_2\XMC4500_IO_Flat\Debug/../system/CMSIS/Infineon/XMC4500_series/Source/GCC/startup_XMC4500.asm:345
   BLX R0
 8000264:	4780      	blx	r0
D:\Software\workspace_2\XMC4500_IO_Flat\Debug/../system/CMSIS/Infineon/XMC4500_series/Source/GCC/startup_XMC4500.asm:348

   /* Reset stack pointer before zipping off to user application, Optional */
   LDR SP,=__Xmc4500_stack 
 8000266:	f8df d034 	ldr.w	sp, [pc, #52]	; 800029c <SKIPCLEAR+0x44>
D:\Software\workspace_2\XMC4500_IO_Flat\Debug/../system/CMSIS/Infineon/XMC4500_series/Source/GCC/startup_XMC4500.asm:349
   MOV R0,#0
 800026a:	f04f 0000 	mov.w	r0, #0
D:\Software\workspace_2\XMC4500_IO_Flat\Debug/../system/CMSIS/Infineon/XMC4500_series/Source/GCC/startup_XMC4500.asm:350
   MOV R1,#0
 800026e:	f04f 0100 	mov.w	r1, #0
D:\Software\workspace_2\XMC4500_IO_Flat\Debug/../system/CMSIS/Infineon/XMC4500_series/Source/GCC/startup_XMC4500.asm:351
   LDR PC, =main
 8000272:	f8df f02c 	ldr.w	pc, [pc, #44]	; 80002a0 <SKIPCLEAR+0x48>
 8000276:	0000      	.short	0x0000
D:\Software\workspace_2\XMC4500_IO_Flat\Debug/../system/CMSIS/Infineon/XMC4500_series/Source/GCC/startup_XMC4500.asm:287
   .fnstart
   /* Memories are accessible now*/
   
   /* DATA COPY */
   /* R0 = Start address, R1 = Destination address, R2 = Size */
   LDR R0, =eROData
 8000278:	0c001670 	.word	0x0c001670
D:\Software\workspace_2\XMC4500_IO_Flat\Debug/../system/CMSIS/Infineon/XMC4500_series/Source/GCC/startup_XMC4500.asm:288
   LDR R1, =__Xmc4500_sData
 800027c:	20000870 	.word	0x20000870
D:\Software\workspace_2\XMC4500_IO_Flat\Debug/../system/CMSIS/Infineon/XMC4500_series/Source/GCC/startup_XMC4500.asm:289
   LDR R2, =__Xmc4500_Data_Size
 8000280:	00000008 	.word	0x00000008
D:\Software\workspace_2\XMC4500_IO_Flat\Debug/../system/CMSIS/Infineon/XMC4500_series/Source/GCC/startup_XMC4500.asm:314
   ADD R1,#4
   B COPYLOOP
    
SKIPCOPY:
   /* BSS CLEAR */
   LDR R0, =__Xmc4500_sBSS     /* Start of BSS */
 8000284:	20000800 	.word	0x20000800
D:\Software\workspace_2\XMC4500_IO_Flat\Debug/../system/CMSIS/Infineon/XMC4500_series/Source/GCC/startup_XMC4500.asm:315
   LDR R1, =__Xmc4500_BSS_Size /* BSS size in bytes */
 8000288:	00000070 	.word	0x00000070
D:\Software\workspace_2\XMC4500_IO_Flat\Debug/../system/CMSIS/Infineon/XMC4500_series/Source/GCC/startup_XMC4500.asm:335
   B CLEARLOOP
    
SKIPCLEAR:
   /* Remap vector table */
   /* This is already setup by BootROM,hence this step is optional */ 
   LDR R0, =__Xmc4500_interrupt_vector_cortex_m 
 800028c:	08000000 	.word	0x08000000
D:\Software\workspace_2\XMC4500_IO_Flat\Debug/../system/CMSIS/Infineon/XMC4500_series/Source/GCC/startup_XMC4500.asm:336
   LDR R1, =SCB_VTOR
 8000290:	e000ed08 	.word	0xe000ed08
D:\Software\workspace_2\XMC4500_IO_Flat\Debug/../system/CMSIS/Infineon/XMC4500_series/Source/GCC/startup_XMC4500.asm:340
   STR R0,[R1]
   
   /* Update System Clock */
   LDR R0,=SystemCoreClockUpdate
 8000294:	08000b39 	.word	0x08000b39
D:\Software\workspace_2\XMC4500_IO_Flat\Debug/../system/CMSIS/Infineon/XMC4500_series/Source/GCC/startup_XMC4500.asm:344
   BLX R0
 
   /* C++ : Call global constructors */
   LDR R0,=__libc_init_array
 8000298:	08001609 	.word	0x08001609
D:\Software\workspace_2\XMC4500_IO_Flat\Debug/../system/CMSIS/Infineon/XMC4500_series/Source/GCC/startup_XMC4500.asm:348
   BLX R0

   /* Reset stack pointer before zipping off to user application, Optional */
   LDR SP,=__Xmc4500_stack 
 800029c:	20000800 	.word	0x20000800
D:\Software\workspace_2\XMC4500_IO_Flat\Debug/../system/CMSIS/Infineon/XMC4500_series/Source/GCC/startup_XMC4500.asm:351
   MOV R0,#0
   MOV R1,#0
   LDR PC, =main
 80002a0:	080014ed 	.word	0x080014ed

080002a4 <SystemInit_DAVE3>:
SystemInit_DAVE3():
D:\Software\workspace_2\XMC4500_IO_Flat\Debug/../system/CMSIS/Infineon/XMC4500_series/Source/GCC/startup_XMC4500.asm:619
*/
     .section ".XmcStartup"
     .weak SystemInit_DAVE3
     .type SystemInit_DAVE3, %function
SystemInit_DAVE3:
     NOP
 80002a4:	bf00      	nop
D:\Software\workspace_2\XMC4500_IO_Flat\Debug/../system/CMSIS/Infineon/XMC4500_series/Source/GCC/startup_XMC4500.asm:620
     BX LR
 80002a6:	4770      	bx	lr

080002a8 <NMI_Handler>:
NMI_Handler():
D:\Software\workspace_2\XMC4500_IO_Flat\Debug/../system/CMSIS/Infineon/XMC4500_series/Source/GCC/startup_XMC4500.asm:365
/* Default exception Handlers - Users may override this default functionality by
   defining handlers of the same name in their C code */
    .thumb
    .text

     Insert_ExceptionHandler NMI_Handler
 80002a8:	e7fe      	b.n	80002a8 <NMI_Handler>

080002aa <NMI_Handler_Veneer>:
NMI_Handler_Veneer():
 80002aa:	f8df 0670 	ldr.w	r0, [pc, #1648]	; 800091c <AllowPLLInitByStartup+0x6>
 80002ae:	b500      	push	{lr}
 80002b0:	b081      	sub	sp, #4
 80002b2:	4780      	blx	r0
 80002b4:	b001      	add	sp, #4
 80002b6:	bd00      	pop	{pc}

080002b8 <HardFault_Handler>:
HardFault_Handler():
D:\Software\workspace_2\XMC4500_IO_Flat\Debug/../system/CMSIS/Infineon/XMC4500_series/Source/GCC/startup_XMC4500.asm:367
/* ======================================================================== */
     Insert_ExceptionHandler HardFault_Handler
 80002b8:	e7fe      	b.n	80002b8 <HardFault_Handler>

080002ba <HardFault_Handler_Veneer>:
HardFault_Handler_Veneer():
 80002ba:	f8df 0664 	ldr.w	r0, [pc, #1636]	; 8000920 <AllowPLLInitByStartup+0xa>
 80002be:	b500      	push	{lr}
 80002c0:	b081      	sub	sp, #4
 80002c2:	4780      	blx	r0
 80002c4:	b001      	add	sp, #4
 80002c6:	bd00      	pop	{pc}

080002c8 <MemManage_Handler>:
MemManage_Handler():
D:\Software\workspace_2\XMC4500_IO_Flat\Debug/../system/CMSIS/Infineon/XMC4500_series/Source/GCC/startup_XMC4500.asm:369
/* ======================================================================== */
     Insert_ExceptionHandler MemManage_Handler
 80002c8:	e7fe      	b.n	80002c8 <MemManage_Handler>

080002ca <MemManage_Handler_Veneer>:
MemManage_Handler_Veneer():
 80002ca:	f8df 0658 	ldr.w	r0, [pc, #1624]	; 8000924 <AllowPLLInitByStartup+0xe>
 80002ce:	b500      	push	{lr}
 80002d0:	b081      	sub	sp, #4
 80002d2:	4780      	blx	r0
 80002d4:	b001      	add	sp, #4
 80002d6:	bd00      	pop	{pc}

080002d8 <BusFault_Handler>:
BusFault_Handler():
D:\Software\workspace_2\XMC4500_IO_Flat\Debug/../system/CMSIS/Infineon/XMC4500_series/Source/GCC/startup_XMC4500.asm:371
/* ======================================================================== */
     Insert_ExceptionHandler BusFault_Handler
 80002d8:	e7fe      	b.n	80002d8 <BusFault_Handler>

080002da <BusFault_Handler_Veneer>:
BusFault_Handler_Veneer():
 80002da:	f8df 064c 	ldr.w	r0, [pc, #1612]	; 8000928 <AllowPLLInitByStartup+0x12>
 80002de:	b500      	push	{lr}
 80002e0:	b081      	sub	sp, #4
 80002e2:	4780      	blx	r0
 80002e4:	b001      	add	sp, #4
 80002e6:	bd00      	pop	{pc}

080002e8 <UsageFault_Handler>:
UsageFault_Handler():
D:\Software\workspace_2\XMC4500_IO_Flat\Debug/../system/CMSIS/Infineon/XMC4500_series/Source/GCC/startup_XMC4500.asm:373
/* ======================================================================== */
     Insert_ExceptionHandler UsageFault_Handler
 80002e8:	e7fe      	b.n	80002e8 <UsageFault_Handler>

080002ea <UsageFault_Handler_Veneer>:
UsageFault_Handler_Veneer():
 80002ea:	f8df 0640 	ldr.w	r0, [pc, #1600]	; 800092c <AllowPLLInitByStartup+0x16>
 80002ee:	b500      	push	{lr}
 80002f0:	b081      	sub	sp, #4
 80002f2:	4780      	blx	r0
 80002f4:	b001      	add	sp, #4
 80002f6:	bd00      	pop	{pc}

080002f8 <SVC_Handler>:
SVC_Handler():
D:\Software\workspace_2\XMC4500_IO_Flat\Debug/../system/CMSIS/Infineon/XMC4500_series/Source/GCC/startup_XMC4500.asm:375
/* ======================================================================== */
     Insert_ExceptionHandler SVC_Handler
 80002f8:	e7fe      	b.n	80002f8 <SVC_Handler>

080002fa <SVC_Handler_Veneer>:
SVC_Handler_Veneer():
 80002fa:	f8df 0634 	ldr.w	r0, [pc, #1588]	; 8000930 <AllowPLLInitByStartup+0x1a>
 80002fe:	b500      	push	{lr}
 8000300:	b081      	sub	sp, #4
 8000302:	4780      	blx	r0
 8000304:	b001      	add	sp, #4
 8000306:	bd00      	pop	{pc}

08000308 <DebugMon_Handler>:
DebugMon_Handler():
D:\Software\workspace_2\XMC4500_IO_Flat\Debug/../system/CMSIS/Infineon/XMC4500_series/Source/GCC/startup_XMC4500.asm:377
/* ======================================================================== */
     Insert_ExceptionHandler DebugMon_Handler
 8000308:	e7fe      	b.n	8000308 <DebugMon_Handler>

0800030a <DebugMon_Handler_Veneer>:
DebugMon_Handler_Veneer():
 800030a:	f8df 0628 	ldr.w	r0, [pc, #1576]	; 8000934 <AllowPLLInitByStartup+0x1e>
 800030e:	b500      	push	{lr}
 8000310:	b081      	sub	sp, #4
 8000312:	4780      	blx	r0
 8000314:	b001      	add	sp, #4
 8000316:	bd00      	pop	{pc}

08000318 <PendSV_Handler>:
PendSV_Handler():
D:\Software\workspace_2\XMC4500_IO_Flat\Debug/../system/CMSIS/Infineon/XMC4500_series/Source/GCC/startup_XMC4500.asm:379
/* ======================================================================== */
     Insert_ExceptionHandler PendSV_Handler
 8000318:	e7fe      	b.n	8000318 <PendSV_Handler>

0800031a <PendSV_Handler_Veneer>:
PendSV_Handler_Veneer():
 800031a:	f8df 061c 	ldr.w	r0, [pc, #1564]	; 8000938 <AllowPLLInitByStartup+0x22>
 800031e:	b500      	push	{lr}
 8000320:	b081      	sub	sp, #4
 8000322:	4780      	blx	r0
 8000324:	b001      	add	sp, #4
 8000326:	bd00      	pop	{pc}
D:\Software\workspace_2\XMC4500_IO_Flat\Debug/../system/CMSIS/Infineon/XMC4500_series/Source/GCC/startup_XMC4500.asm:381
/* ======================================================================== */
     Insert_ExceptionHandler SysTick_Handler
 8000328:	e7fe      	b.n	8000328 <PendSV_Handler_Veneer+0xe>

0800032a <SysTick_Handler_Veneer>:
SysTick_Handler_Veneer():
 800032a:	f8df 0610 	ldr.w	r0, [pc, #1552]	; 800093c <AllowPLLInitByStartup+0x26>
 800032e:	b500      	push	{lr}
 8000330:	b081      	sub	sp, #4
 8000332:	4780      	blx	r0
 8000334:	b001      	add	sp, #4
 8000336:	bd00      	pop	{pc}

08000338 <SCU_0_IRQHandler>:
SCU_0_IRQHandler():
D:\Software\workspace_2\XMC4500_IO_Flat\Debug/../system/CMSIS/Infineon/XMC4500_series/Source/GCC/startup_XMC4500.asm:388
/* ============= END OF EXCEPTION HANDLER DEFINITION ======================== */

/* ============= START OF INTERRUPT HANDLER DEFINITION ====================== */

/* IRQ Handlers */
     Insert_ExceptionHandler SCU_0_IRQHandler
 8000338:	e7fe      	b.n	8000338 <SCU_0_IRQHandler>

0800033a <SCU_0_IRQHandler_Veneer>:
SCU_0_IRQHandler_Veneer():
 800033a:	f8df 0604 	ldr.w	r0, [pc, #1540]	; 8000940 <AllowPLLInitByStartup+0x2a>
 800033e:	b500      	push	{lr}
 8000340:	b081      	sub	sp, #4
 8000342:	4780      	blx	r0
 8000344:	b001      	add	sp, #4
 8000346:	bd00      	pop	{pc}

08000348 <ERU0_0_IRQHandler>:
ERU0_0_IRQHandler():
D:\Software\workspace_2\XMC4500_IO_Flat\Debug/../system/CMSIS/Infineon/XMC4500_series/Source/GCC/startup_XMC4500.asm:390
/* ======================================================================== */
     Insert_ExceptionHandler ERU0_0_IRQHandler
 8000348:	e7fe      	b.n	8000348 <ERU0_0_IRQHandler>

0800034a <ERU0_0_IRQHandler_Veneer>:
ERU0_0_IRQHandler_Veneer():
 800034a:	f8df 05f8 	ldr.w	r0, [pc, #1528]	; 8000944 <AllowPLLInitByStartup+0x2e>
 800034e:	b500      	push	{lr}
 8000350:	b081      	sub	sp, #4
 8000352:	4780      	blx	r0
 8000354:	b001      	add	sp, #4
 8000356:	bd00      	pop	{pc}

08000358 <ERU0_1_IRQHandler>:
ERU0_1_IRQHandler():
D:\Software\workspace_2\XMC4500_IO_Flat\Debug/../system/CMSIS/Infineon/XMC4500_series/Source/GCC/startup_XMC4500.asm:392
/* ======================================================================== */
     Insert_ExceptionHandler ERU0_1_IRQHandler
 8000358:	e7fe      	b.n	8000358 <ERU0_1_IRQHandler>

0800035a <ERU0_1_IRQHandler_Veneer>:
ERU0_1_IRQHandler_Veneer():
 800035a:	f8df 05ec 	ldr.w	r0, [pc, #1516]	; 8000948 <AllowPLLInitByStartup+0x32>
 800035e:	b500      	push	{lr}
 8000360:	b081      	sub	sp, #4
 8000362:	4780      	blx	r0
 8000364:	b001      	add	sp, #4
 8000366:	bd00      	pop	{pc}

08000368 <ERU0_2_IRQHandler>:
ERU0_2_IRQHandler():
D:\Software\workspace_2\XMC4500_IO_Flat\Debug/../system/CMSIS/Infineon/XMC4500_series/Source/GCC/startup_XMC4500.asm:394
/* ======================================================================== */
     Insert_ExceptionHandler ERU0_2_IRQHandler
 8000368:	e7fe      	b.n	8000368 <ERU0_2_IRQHandler>

0800036a <ERU0_2_IRQHandler_Veneer>:
ERU0_2_IRQHandler_Veneer():
 800036a:	f8df 05e0 	ldr.w	r0, [pc, #1504]	; 800094c <AllowPLLInitByStartup+0x36>
 800036e:	b500      	push	{lr}
 8000370:	b081      	sub	sp, #4
 8000372:	4780      	blx	r0
 8000374:	b001      	add	sp, #4
 8000376:	bd00      	pop	{pc}

08000378 <ERU0_3_IRQHandler>:
ERU0_3_IRQHandler():
D:\Software\workspace_2\XMC4500_IO_Flat\Debug/../system/CMSIS/Infineon/XMC4500_series/Source/GCC/startup_XMC4500.asm:396
/* ======================================================================== */
     Insert_ExceptionHandler ERU0_3_IRQHandler
 8000378:	e7fe      	b.n	8000378 <ERU0_3_IRQHandler>

0800037a <ERU0_3_IRQHandler_Veneer>:
ERU0_3_IRQHandler_Veneer():
 800037a:	f8df 05d4 	ldr.w	r0, [pc, #1492]	; 8000950 <AllowPLLInitByStartup+0x3a>
 800037e:	b500      	push	{lr}
 8000380:	b081      	sub	sp, #4
 8000382:	4780      	blx	r0
 8000384:	b001      	add	sp, #4
 8000386:	bd00      	pop	{pc}

08000388 <ERU1_0_IRQHandler>:
ERU1_0_IRQHandler():
D:\Software\workspace_2\XMC4500_IO_Flat\Debug/../system/CMSIS/Infineon/XMC4500_series/Source/GCC/startup_XMC4500.asm:398
/* ======================================================================== */
     Insert_ExceptionHandler ERU1_0_IRQHandler
 8000388:	e7fe      	b.n	8000388 <ERU1_0_IRQHandler>

0800038a <ERU1_0_IRQHandler_Veneer>:
ERU1_0_IRQHandler_Veneer():
 800038a:	f8df 05c8 	ldr.w	r0, [pc, #1480]	; 8000954 <AllowPLLInitByStartup+0x3e>
 800038e:	b500      	push	{lr}
 8000390:	b081      	sub	sp, #4
 8000392:	4780      	blx	r0
 8000394:	b001      	add	sp, #4
 8000396:	bd00      	pop	{pc}

08000398 <ERU1_1_IRQHandler>:
ERU1_1_IRQHandler():
D:\Software\workspace_2\XMC4500_IO_Flat\Debug/../system/CMSIS/Infineon/XMC4500_series/Source/GCC/startup_XMC4500.asm:400
/* ======================================================================== */
     Insert_ExceptionHandler ERU1_1_IRQHandler
 8000398:	e7fe      	b.n	8000398 <ERU1_1_IRQHandler>

0800039a <ERU1_1_IRQHandler_Veneer>:
ERU1_1_IRQHandler_Veneer():
 800039a:	f8df 05bc 	ldr.w	r0, [pc, #1468]	; 8000958 <AllowPLLInitByStartup+0x42>
 800039e:	b500      	push	{lr}
 80003a0:	b081      	sub	sp, #4
 80003a2:	4780      	blx	r0
 80003a4:	b001      	add	sp, #4
 80003a6:	bd00      	pop	{pc}

080003a8 <ERU1_2_IRQHandler>:
ERU1_2_IRQHandler():
D:\Software\workspace_2\XMC4500_IO_Flat\Debug/../system/CMSIS/Infineon/XMC4500_series/Source/GCC/startup_XMC4500.asm:402
/* ======================================================================== */
     Insert_ExceptionHandler ERU1_2_IRQHandler
 80003a8:	e7fe      	b.n	80003a8 <ERU1_2_IRQHandler>

080003aa <ERU1_2_IRQHandler_Veneer>:
ERU1_2_IRQHandler_Veneer():
 80003aa:	f8df 05b0 	ldr.w	r0, [pc, #1456]	; 800095c <AllowPLLInitByStartup+0x46>
 80003ae:	b500      	push	{lr}
 80003b0:	b081      	sub	sp, #4
 80003b2:	4780      	blx	r0
 80003b4:	b001      	add	sp, #4
 80003b6:	bd00      	pop	{pc}

080003b8 <ERU1_3_IRQHandler>:
ERU1_3_IRQHandler():
D:\Software\workspace_2\XMC4500_IO_Flat\Debug/../system/CMSIS/Infineon/XMC4500_series/Source/GCC/startup_XMC4500.asm:404
/* ======================================================================== */
     Insert_ExceptionHandler ERU1_3_IRQHandler
 80003b8:	e7fe      	b.n	80003b8 <ERU1_3_IRQHandler>

080003ba <ERU1_3_IRQHandler_Veneer>:
ERU1_3_IRQHandler_Veneer():
 80003ba:	f8df 05a4 	ldr.w	r0, [pc, #1444]	; 8000960 <AllowPLLInitByStartup+0x4a>
 80003be:	b500      	push	{lr}
 80003c0:	b081      	sub	sp, #4
 80003c2:	4780      	blx	r0
 80003c4:	b001      	add	sp, #4
 80003c6:	bd00      	pop	{pc}

080003c8 <PMU0_0_IRQHandler>:
PMU0_0_IRQHandler():
D:\Software\workspace_2\XMC4500_IO_Flat\Debug/../system/CMSIS/Infineon/XMC4500_series/Source/GCC/startup_XMC4500.asm:406
/* ======================================================================== */
     Insert_ExceptionHandler PMU0_0_IRQHandler
 80003c8:	e7fe      	b.n	80003c8 <PMU0_0_IRQHandler>

080003ca <PMU0_0_IRQHandler_Veneer>:
PMU0_0_IRQHandler_Veneer():
 80003ca:	f8df 0598 	ldr.w	r0, [pc, #1432]	; 8000964 <AllowPLLInitByStartup+0x4e>
 80003ce:	b500      	push	{lr}
 80003d0:	b081      	sub	sp, #4
 80003d2:	4780      	blx	r0
 80003d4:	b001      	add	sp, #4
 80003d6:	bd00      	pop	{pc}

080003d8 <VADC0_C0_0_IRQHandler>:
VADC0_C0_0_IRQHandler():
D:\Software\workspace_2\XMC4500_IO_Flat\Debug/../system/CMSIS/Infineon/XMC4500_series/Source/GCC/startup_XMC4500.asm:408
/* ======================================================================== */
     Insert_ExceptionHandler VADC0_C0_0_IRQHandler
 80003d8:	e7fe      	b.n	80003d8 <VADC0_C0_0_IRQHandler>

080003da <VADC0_C0_0_IRQHandler_Veneer>:
VADC0_C0_0_IRQHandler_Veneer():
 80003da:	f8df 058c 	ldr.w	r0, [pc, #1420]	; 8000968 <AllowPLLInitByStartup+0x52>
 80003de:	b500      	push	{lr}
 80003e0:	b081      	sub	sp, #4
 80003e2:	4780      	blx	r0
 80003e4:	b001      	add	sp, #4
 80003e6:	bd00      	pop	{pc}

080003e8 <VADC0_C0_1_IRQHandler>:
VADC0_C0_1_IRQHandler():
D:\Software\workspace_2\XMC4500_IO_Flat\Debug/../system/CMSIS/Infineon/XMC4500_series/Source/GCC/startup_XMC4500.asm:410
/* ======================================================================== */
     Insert_ExceptionHandler VADC0_C0_1_IRQHandler
 80003e8:	e7fe      	b.n	80003e8 <VADC0_C0_1_IRQHandler>

080003ea <VADC0_C0_1_IRQHandler_Veneer>:
VADC0_C0_1_IRQHandler_Veneer():
 80003ea:	f8df 0580 	ldr.w	r0, [pc, #1408]	; 800096c <AllowPLLInitByStartup+0x56>
 80003ee:	b500      	push	{lr}
 80003f0:	b081      	sub	sp, #4
 80003f2:	4780      	blx	r0
 80003f4:	b001      	add	sp, #4
 80003f6:	bd00      	pop	{pc}

080003f8 <VADC0_C0_2_IRQHandler>:
VADC0_C0_2_IRQHandler():
D:\Software\workspace_2\XMC4500_IO_Flat\Debug/../system/CMSIS/Infineon/XMC4500_series/Source/GCC/startup_XMC4500.asm:412
/* ======================================================================== */
     Insert_ExceptionHandler VADC0_C0_2_IRQHandler
 80003f8:	e7fe      	b.n	80003f8 <VADC0_C0_2_IRQHandler>

080003fa <VADC0_C0_2_IRQHandler_Veneer>:
VADC0_C0_2_IRQHandler_Veneer():
 80003fa:	f8df 0574 	ldr.w	r0, [pc, #1396]	; 8000970 <AllowPLLInitByStartup+0x5a>
 80003fe:	b500      	push	{lr}
 8000400:	b081      	sub	sp, #4
 8000402:	4780      	blx	r0
 8000404:	b001      	add	sp, #4
 8000406:	bd00      	pop	{pc}

08000408 <VADC0_C0_3_IRQHandler>:
VADC0_C0_3_IRQHandler():
D:\Software\workspace_2\XMC4500_IO_Flat\Debug/../system/CMSIS/Infineon/XMC4500_series/Source/GCC/startup_XMC4500.asm:414
/* ======================================================================== */
     Insert_ExceptionHandler VADC0_C0_3_IRQHandler
 8000408:	e7fe      	b.n	8000408 <VADC0_C0_3_IRQHandler>

0800040a <VADC0_C0_3_IRQHandler_Veneer>:
VADC0_C0_3_IRQHandler_Veneer():
 800040a:	f8df 0568 	ldr.w	r0, [pc, #1384]	; 8000974 <AllowPLLInitByStartup+0x5e>
 800040e:	b500      	push	{lr}
 8000410:	b081      	sub	sp, #4
 8000412:	4780      	blx	r0
 8000414:	b001      	add	sp, #4
 8000416:	bd00      	pop	{pc}

08000418 <VADC0_G0_0_IRQHandler>:
VADC0_G0_0_IRQHandler():
D:\Software\workspace_2\XMC4500_IO_Flat\Debug/../system/CMSIS/Infineon/XMC4500_series/Source/GCC/startup_XMC4500.asm:416
/* ======================================================================== */
     Insert_ExceptionHandler VADC0_G0_0_IRQHandler
 8000418:	e7fe      	b.n	8000418 <VADC0_G0_0_IRQHandler>

0800041a <VADC0_G0_0_IRQHandler_Veneer>:
VADC0_G0_0_IRQHandler_Veneer():
 800041a:	f8df 055c 	ldr.w	r0, [pc, #1372]	; 8000978 <AllowPLLInitByStartup+0x62>
 800041e:	b500      	push	{lr}
 8000420:	b081      	sub	sp, #4
 8000422:	4780      	blx	r0
 8000424:	b001      	add	sp, #4
 8000426:	bd00      	pop	{pc}

08000428 <VADC0_G0_1_IRQHandler>:
VADC0_G0_1_IRQHandler():
D:\Software\workspace_2\XMC4500_IO_Flat\Debug/../system/CMSIS/Infineon/XMC4500_series/Source/GCC/startup_XMC4500.asm:418
/* ======================================================================== */
     Insert_ExceptionHandler VADC0_G0_1_IRQHandler
 8000428:	e7fe      	b.n	8000428 <VADC0_G0_1_IRQHandler>

0800042a <VADC0_G0_1_IRQHandler_Veneer>:
VADC0_G0_1_IRQHandler_Veneer():
 800042a:	f8df 0550 	ldr.w	r0, [pc, #1360]	; 800097c <AllowPLLInitByStartup+0x66>
 800042e:	b500      	push	{lr}
 8000430:	b081      	sub	sp, #4
 8000432:	4780      	blx	r0
 8000434:	b001      	add	sp, #4
 8000436:	bd00      	pop	{pc}

08000438 <VADC0_G0_2_IRQHandler>:
VADC0_G0_2_IRQHandler():
D:\Software\workspace_2\XMC4500_IO_Flat\Debug/../system/CMSIS/Infineon/XMC4500_series/Source/GCC/startup_XMC4500.asm:420
/* ======================================================================== */
     Insert_ExceptionHandler VADC0_G0_2_IRQHandler
 8000438:	e7fe      	b.n	8000438 <VADC0_G0_2_IRQHandler>

0800043a <VADC0_G0_2_IRQHandler_Veneer>:
VADC0_G0_2_IRQHandler_Veneer():
 800043a:	f8df 0544 	ldr.w	r0, [pc, #1348]	; 8000980 <AllowPLLInitByStartup+0x6a>
 800043e:	b500      	push	{lr}
 8000440:	b081      	sub	sp, #4
 8000442:	4780      	blx	r0
 8000444:	b001      	add	sp, #4
 8000446:	bd00      	pop	{pc}

08000448 <VADC0_G0_3_IRQHandler>:
VADC0_G0_3_IRQHandler():
D:\Software\workspace_2\XMC4500_IO_Flat\Debug/../system/CMSIS/Infineon/XMC4500_series/Source/GCC/startup_XMC4500.asm:422
/* ======================================================================== */
     Insert_ExceptionHandler VADC0_G0_3_IRQHandler
 8000448:	e7fe      	b.n	8000448 <VADC0_G0_3_IRQHandler>

0800044a <VADC0_G0_3_IRQHandler_Veneer>:
VADC0_G0_3_IRQHandler_Veneer():
 800044a:	f8df 0538 	ldr.w	r0, [pc, #1336]	; 8000984 <AllowPLLInitByStartup+0x6e>
 800044e:	b500      	push	{lr}
 8000450:	b081      	sub	sp, #4
 8000452:	4780      	blx	r0
 8000454:	b001      	add	sp, #4
 8000456:	bd00      	pop	{pc}

08000458 <VADC0_G1_0_IRQHandler>:
VADC0_G1_0_IRQHandler():
D:\Software\workspace_2\XMC4500_IO_Flat\Debug/../system/CMSIS/Infineon/XMC4500_series/Source/GCC/startup_XMC4500.asm:424
/* ======================================================================== */
     Insert_ExceptionHandler VADC0_G1_0_IRQHandler
 8000458:	e7fe      	b.n	8000458 <VADC0_G1_0_IRQHandler>

0800045a <VADC0_G1_0_IRQHandler_Veneer>:
VADC0_G1_0_IRQHandler_Veneer():
 800045a:	f8df 052c 	ldr.w	r0, [pc, #1324]	; 8000988 <AllowPLLInitByStartup+0x72>
 800045e:	b500      	push	{lr}
 8000460:	b081      	sub	sp, #4
 8000462:	4780      	blx	r0
 8000464:	b001      	add	sp, #4
 8000466:	bd00      	pop	{pc}

08000468 <VADC0_G1_1_IRQHandler>:
VADC0_G1_1_IRQHandler():
D:\Software\workspace_2\XMC4500_IO_Flat\Debug/../system/CMSIS/Infineon/XMC4500_series/Source/GCC/startup_XMC4500.asm:426
/* ======================================================================== */
     Insert_ExceptionHandler VADC0_G1_1_IRQHandler
 8000468:	e7fe      	b.n	8000468 <VADC0_G1_1_IRQHandler>

0800046a <VADC0_G1_1_IRQHandler_Veneer>:
VADC0_G1_1_IRQHandler_Veneer():
 800046a:	f8df 0520 	ldr.w	r0, [pc, #1312]	; 800098c <AllowPLLInitByStartup+0x76>
 800046e:	b500      	push	{lr}
 8000470:	b081      	sub	sp, #4
 8000472:	4780      	blx	r0
 8000474:	b001      	add	sp, #4
 8000476:	bd00      	pop	{pc}

08000478 <VADC0_G1_2_IRQHandler>:
VADC0_G1_2_IRQHandler():
D:\Software\workspace_2\XMC4500_IO_Flat\Debug/../system/CMSIS/Infineon/XMC4500_series/Source/GCC/startup_XMC4500.asm:428
/* ======================================================================== */
     Insert_ExceptionHandler VADC0_G1_2_IRQHandler
 8000478:	e7fe      	b.n	8000478 <VADC0_G1_2_IRQHandler>

0800047a <VADC0_G1_2_IRQHandler_Veneer>:
VADC0_G1_2_IRQHandler_Veneer():
 800047a:	f8df 0514 	ldr.w	r0, [pc, #1300]	; 8000990 <AllowPLLInitByStartup+0x7a>
 800047e:	b500      	push	{lr}
 8000480:	b081      	sub	sp, #4
 8000482:	4780      	blx	r0
 8000484:	b001      	add	sp, #4
 8000486:	bd00      	pop	{pc}

08000488 <VADC0_G1_3_IRQHandler>:
VADC0_G1_3_IRQHandler():
D:\Software\workspace_2\XMC4500_IO_Flat\Debug/../system/CMSIS/Infineon/XMC4500_series/Source/GCC/startup_XMC4500.asm:430
/* ======================================================================== */
     Insert_ExceptionHandler VADC0_G1_3_IRQHandler
 8000488:	e7fe      	b.n	8000488 <VADC0_G1_3_IRQHandler>

0800048a <VADC0_G1_3_IRQHandler_Veneer>:
VADC0_G1_3_IRQHandler_Veneer():
 800048a:	f8df 0508 	ldr.w	r0, [pc, #1288]	; 8000994 <AllowPLLInitByStartup+0x7e>
 800048e:	b500      	push	{lr}
 8000490:	b081      	sub	sp, #4
 8000492:	4780      	blx	r0
 8000494:	b001      	add	sp, #4
 8000496:	bd00      	pop	{pc}

08000498 <VADC0_G2_0_IRQHandler>:
VADC0_G2_0_IRQHandler():
D:\Software\workspace_2\XMC4500_IO_Flat\Debug/../system/CMSIS/Infineon/XMC4500_series/Source/GCC/startup_XMC4500.asm:432
/* ======================================================================== */
     Insert_ExceptionHandler VADC0_G2_0_IRQHandler
 8000498:	e7fe      	b.n	8000498 <VADC0_G2_0_IRQHandler>

0800049a <VADC0_G2_0_IRQHandler_Veneer>:
VADC0_G2_0_IRQHandler_Veneer():
 800049a:	f8df 04fc 	ldr.w	r0, [pc, #1276]	; 8000998 <AllowPLLInitByStartup+0x82>
 800049e:	b500      	push	{lr}
 80004a0:	b081      	sub	sp, #4
 80004a2:	4780      	blx	r0
 80004a4:	b001      	add	sp, #4
 80004a6:	bd00      	pop	{pc}

080004a8 <VADC0_G2_1_IRQHandler>:
VADC0_G2_1_IRQHandler():
D:\Software\workspace_2\XMC4500_IO_Flat\Debug/../system/CMSIS/Infineon/XMC4500_series/Source/GCC/startup_XMC4500.asm:434
/* ======================================================================== */
     Insert_ExceptionHandler VADC0_G2_1_IRQHandler
 80004a8:	e7fe      	b.n	80004a8 <VADC0_G2_1_IRQHandler>

080004aa <VADC0_G2_1_IRQHandler_Veneer>:
VADC0_G2_1_IRQHandler_Veneer():
 80004aa:	f8df 04f0 	ldr.w	r0, [pc, #1264]	; 800099c <AllowPLLInitByStartup+0x86>
 80004ae:	b500      	push	{lr}
 80004b0:	b081      	sub	sp, #4
 80004b2:	4780      	blx	r0
 80004b4:	b001      	add	sp, #4
 80004b6:	bd00      	pop	{pc}

080004b8 <VADC0_G2_2_IRQHandler>:
VADC0_G2_2_IRQHandler():
D:\Software\workspace_2\XMC4500_IO_Flat\Debug/../system/CMSIS/Infineon/XMC4500_series/Source/GCC/startup_XMC4500.asm:436
/* ======================================================================== */
     Insert_ExceptionHandler VADC0_G2_2_IRQHandler
 80004b8:	e7fe      	b.n	80004b8 <VADC0_G2_2_IRQHandler>

080004ba <VADC0_G2_2_IRQHandler_Veneer>:
VADC0_G2_2_IRQHandler_Veneer():
 80004ba:	f8df 04e4 	ldr.w	r0, [pc, #1252]	; 80009a0 <AllowPLLInitByStartup+0x8a>
 80004be:	b500      	push	{lr}
 80004c0:	b081      	sub	sp, #4
 80004c2:	4780      	blx	r0
 80004c4:	b001      	add	sp, #4
 80004c6:	bd00      	pop	{pc}

080004c8 <VADC0_G2_3_IRQHandler>:
VADC0_G2_3_IRQHandler():
D:\Software\workspace_2\XMC4500_IO_Flat\Debug/../system/CMSIS/Infineon/XMC4500_series/Source/GCC/startup_XMC4500.asm:438
/* ======================================================================== */
     Insert_ExceptionHandler VADC0_G2_3_IRQHandler
 80004c8:	e7fe      	b.n	80004c8 <VADC0_G2_3_IRQHandler>

080004ca <VADC0_G2_3_IRQHandler_Veneer>:
VADC0_G2_3_IRQHandler_Veneer():
 80004ca:	f8df 04d8 	ldr.w	r0, [pc, #1240]	; 80009a4 <AllowPLLInitByStartup+0x8e>
 80004ce:	b500      	push	{lr}
 80004d0:	b081      	sub	sp, #4
 80004d2:	4780      	blx	r0
 80004d4:	b001      	add	sp, #4
 80004d6:	bd00      	pop	{pc}

080004d8 <VADC0_G3_0_IRQHandler>:
VADC0_G3_0_IRQHandler():
D:\Software\workspace_2\XMC4500_IO_Flat\Debug/../system/CMSIS/Infineon/XMC4500_series/Source/GCC/startup_XMC4500.asm:440
/* ======================================================================== */
     Insert_ExceptionHandler VADC0_G3_0_IRQHandler
 80004d8:	e7fe      	b.n	80004d8 <VADC0_G3_0_IRQHandler>

080004da <VADC0_G3_0_IRQHandler_Veneer>:
VADC0_G3_0_IRQHandler_Veneer():
 80004da:	f8df 04cc 	ldr.w	r0, [pc, #1228]	; 80009a8 <AllowPLLInitByStartup+0x92>
 80004de:	b500      	push	{lr}
 80004e0:	b081      	sub	sp, #4
 80004e2:	4780      	blx	r0
 80004e4:	b001      	add	sp, #4
 80004e6:	bd00      	pop	{pc}

080004e8 <VADC0_G3_1_IRQHandler>:
VADC0_G3_1_IRQHandler():
D:\Software\workspace_2\XMC4500_IO_Flat\Debug/../system/CMSIS/Infineon/XMC4500_series/Source/GCC/startup_XMC4500.asm:442
/* ======================================================================== */
     Insert_ExceptionHandler VADC0_G3_1_IRQHandler
 80004e8:	e7fe      	b.n	80004e8 <VADC0_G3_1_IRQHandler>

080004ea <VADC0_G3_1_IRQHandler_Veneer>:
VADC0_G3_1_IRQHandler_Veneer():
 80004ea:	f8df 04c0 	ldr.w	r0, [pc, #1216]	; 80009ac <AllowPLLInitByStartup+0x96>
 80004ee:	b500      	push	{lr}
 80004f0:	b081      	sub	sp, #4
 80004f2:	4780      	blx	r0
 80004f4:	b001      	add	sp, #4
 80004f6:	bd00      	pop	{pc}

080004f8 <VADC0_G3_2_IRQHandler>:
VADC0_G3_2_IRQHandler():
D:\Software\workspace_2\XMC4500_IO_Flat\Debug/../system/CMSIS/Infineon/XMC4500_series/Source/GCC/startup_XMC4500.asm:444
/* ======================================================================== */
     Insert_ExceptionHandler VADC0_G3_2_IRQHandler
 80004f8:	e7fe      	b.n	80004f8 <VADC0_G3_2_IRQHandler>

080004fa <VADC0_G3_2_IRQHandler_Veneer>:
VADC0_G3_2_IRQHandler_Veneer():
 80004fa:	f8df 04b4 	ldr.w	r0, [pc, #1204]	; 80009b0 <AllowPLLInitByStartup+0x9a>
 80004fe:	b500      	push	{lr}
 8000500:	b081      	sub	sp, #4
 8000502:	4780      	blx	r0
 8000504:	b001      	add	sp, #4
 8000506:	bd00      	pop	{pc}

08000508 <VADC0_G3_3_IRQHandler>:
VADC0_G3_3_IRQHandler():
D:\Software\workspace_2\XMC4500_IO_Flat\Debug/../system/CMSIS/Infineon/XMC4500_series/Source/GCC/startup_XMC4500.asm:446
/* ======================================================================== */
     Insert_ExceptionHandler VADC0_G3_3_IRQHandler
 8000508:	e7fe      	b.n	8000508 <VADC0_G3_3_IRQHandler>

0800050a <VADC0_G3_3_IRQHandler_Veneer>:
VADC0_G3_3_IRQHandler_Veneer():
 800050a:	f8df 04a8 	ldr.w	r0, [pc, #1192]	; 80009b4 <AllowPLLInitByStartup+0x9e>
 800050e:	b500      	push	{lr}
 8000510:	b081      	sub	sp, #4
 8000512:	4780      	blx	r0
 8000514:	b001      	add	sp, #4
 8000516:	bd00      	pop	{pc}

08000518 <DSD0_0_IRQHandler>:
DSD0_0_IRQHandler():
D:\Software\workspace_2\XMC4500_IO_Flat\Debug/../system/CMSIS/Infineon/XMC4500_series/Source/GCC/startup_XMC4500.asm:448
/* ======================================================================== */
     Insert_ExceptionHandler DSD0_0_IRQHandler
 8000518:	e7fe      	b.n	8000518 <DSD0_0_IRQHandler>

0800051a <DSD0_0_IRQHandler_Veneer>:
DSD0_0_IRQHandler_Veneer():
 800051a:	f8df 049c 	ldr.w	r0, [pc, #1180]	; 80009b8 <AllowPLLInitByStartup+0xa2>
 800051e:	b500      	push	{lr}
 8000520:	b081      	sub	sp, #4
 8000522:	4780      	blx	r0
 8000524:	b001      	add	sp, #4
 8000526:	bd00      	pop	{pc}

08000528 <DSD0_1_IRQHandler>:
DSD0_1_IRQHandler():
D:\Software\workspace_2\XMC4500_IO_Flat\Debug/../system/CMSIS/Infineon/XMC4500_series/Source/GCC/startup_XMC4500.asm:450
/* ======================================================================== */
     Insert_ExceptionHandler DSD0_1_IRQHandler
 8000528:	e7fe      	b.n	8000528 <DSD0_1_IRQHandler>

0800052a <DSD0_1_IRQHandler_Veneer>:
DSD0_1_IRQHandler_Veneer():
 800052a:	f8df 0490 	ldr.w	r0, [pc, #1168]	; 80009bc <AllowPLLInitByStartup+0xa6>
 800052e:	b500      	push	{lr}
 8000530:	b081      	sub	sp, #4
 8000532:	4780      	blx	r0
 8000534:	b001      	add	sp, #4
 8000536:	bd00      	pop	{pc}

08000538 <DSD0_2_IRQHandler>:
DSD0_2_IRQHandler():
D:\Software\workspace_2\XMC4500_IO_Flat\Debug/../system/CMSIS/Infineon/XMC4500_series/Source/GCC/startup_XMC4500.asm:452
/* ======================================================================== */
     Insert_ExceptionHandler DSD0_2_IRQHandler
 8000538:	e7fe      	b.n	8000538 <DSD0_2_IRQHandler>

0800053a <DSD0_2_IRQHandler_Veneer>:
DSD0_2_IRQHandler_Veneer():
 800053a:	f8df 0484 	ldr.w	r0, [pc, #1156]	; 80009c0 <AllowPLLInitByStartup+0xaa>
 800053e:	b500      	push	{lr}
 8000540:	b081      	sub	sp, #4
 8000542:	4780      	blx	r0
 8000544:	b001      	add	sp, #4
 8000546:	bd00      	pop	{pc}

08000548 <DSD0_3_IRQHandler>:
DSD0_3_IRQHandler():
D:\Software\workspace_2\XMC4500_IO_Flat\Debug/../system/CMSIS/Infineon/XMC4500_series/Source/GCC/startup_XMC4500.asm:454
/* ======================================================================== */
     Insert_ExceptionHandler DSD0_3_IRQHandler
 8000548:	e7fe      	b.n	8000548 <DSD0_3_IRQHandler>

0800054a <DSD0_3_IRQHandler_Veneer>:
DSD0_3_IRQHandler_Veneer():
 800054a:	f8df 0478 	ldr.w	r0, [pc, #1144]	; 80009c4 <AllowPLLInitByStartup+0xae>
 800054e:	b500      	push	{lr}
 8000550:	b081      	sub	sp, #4
 8000552:	4780      	blx	r0
 8000554:	b001      	add	sp, #4
 8000556:	bd00      	pop	{pc}

08000558 <DSD0_4_IRQHandler>:
DSD0_4_IRQHandler():
D:\Software\workspace_2\XMC4500_IO_Flat\Debug/../system/CMSIS/Infineon/XMC4500_series/Source/GCC/startup_XMC4500.asm:456
/* ======================================================================== */
     Insert_ExceptionHandler DSD0_4_IRQHandler
 8000558:	e7fe      	b.n	8000558 <DSD0_4_IRQHandler>

0800055a <DSD0_4_IRQHandler_Veneer>:
DSD0_4_IRQHandler_Veneer():
 800055a:	f8df 046c 	ldr.w	r0, [pc, #1132]	; 80009c8 <AllowPLLInitByStartup+0xb2>
 800055e:	b500      	push	{lr}
 8000560:	b081      	sub	sp, #4
 8000562:	4780      	blx	r0
 8000564:	b001      	add	sp, #4
 8000566:	bd00      	pop	{pc}

08000568 <DSD0_5_IRQHandler>:
DSD0_5_IRQHandler():
D:\Software\workspace_2\XMC4500_IO_Flat\Debug/../system/CMSIS/Infineon/XMC4500_series/Source/GCC/startup_XMC4500.asm:458
/* ======================================================================== */
     Insert_ExceptionHandler DSD0_5_IRQHandler
 8000568:	e7fe      	b.n	8000568 <DSD0_5_IRQHandler>

0800056a <DSD0_5_IRQHandler_Veneer>:
DSD0_5_IRQHandler_Veneer():
 800056a:	f8df 0460 	ldr.w	r0, [pc, #1120]	; 80009cc <AllowPLLInitByStartup+0xb6>
 800056e:	b500      	push	{lr}
 8000570:	b081      	sub	sp, #4
 8000572:	4780      	blx	r0
 8000574:	b001      	add	sp, #4
 8000576:	bd00      	pop	{pc}

08000578 <DSD0_6_IRQHandler>:
DSD0_6_IRQHandler():
D:\Software\workspace_2\XMC4500_IO_Flat\Debug/../system/CMSIS/Infineon/XMC4500_series/Source/GCC/startup_XMC4500.asm:460
/* ======================================================================== */
     Insert_ExceptionHandler DSD0_6_IRQHandler
 8000578:	e7fe      	b.n	8000578 <DSD0_6_IRQHandler>

0800057a <DSD0_6_IRQHandler_Veneer>:
DSD0_6_IRQHandler_Veneer():
 800057a:	f8df 0454 	ldr.w	r0, [pc, #1108]	; 80009d0 <AllowPLLInitByStartup+0xba>
 800057e:	b500      	push	{lr}
 8000580:	b081      	sub	sp, #4
 8000582:	4780      	blx	r0
 8000584:	b001      	add	sp, #4
 8000586:	bd00      	pop	{pc}

08000588 <DSD0_7_IRQHandler>:
DSD0_7_IRQHandler():
D:\Software\workspace_2\XMC4500_IO_Flat\Debug/../system/CMSIS/Infineon/XMC4500_series/Source/GCC/startup_XMC4500.asm:462
/* ======================================================================== */
     Insert_ExceptionHandler DSD0_7_IRQHandler
 8000588:	e7fe      	b.n	8000588 <DSD0_7_IRQHandler>

0800058a <DSD0_7_IRQHandler_Veneer>:
DSD0_7_IRQHandler_Veneer():
 800058a:	f8df 0448 	ldr.w	r0, [pc, #1096]	; 80009d4 <AllowPLLInitByStartup+0xbe>
 800058e:	b500      	push	{lr}
 8000590:	b081      	sub	sp, #4
 8000592:	4780      	blx	r0
 8000594:	b001      	add	sp, #4
 8000596:	bd00      	pop	{pc}

08000598 <DAC0_0_IRQHandler>:
DAC0_0_IRQHandler():
D:\Software\workspace_2\XMC4500_IO_Flat\Debug/../system/CMSIS/Infineon/XMC4500_series/Source/GCC/startup_XMC4500.asm:464
/* ======================================================================== */
     Insert_ExceptionHandler DAC0_0_IRQHandler
 8000598:	e7fe      	b.n	8000598 <DAC0_0_IRQHandler>

0800059a <DAC0_0_IRQHandler_Veneer>:
DAC0_0_IRQHandler_Veneer():
 800059a:	f8df 043c 	ldr.w	r0, [pc, #1084]	; 80009d8 <AllowPLLInitByStartup+0xc2>
 800059e:	b500      	push	{lr}
 80005a0:	b081      	sub	sp, #4
 80005a2:	4780      	blx	r0
 80005a4:	b001      	add	sp, #4
 80005a6:	bd00      	pop	{pc}

080005a8 <DAC0_1_IRQHandler>:
DAC0_1_IRQHandler():
D:\Software\workspace_2\XMC4500_IO_Flat\Debug/../system/CMSIS/Infineon/XMC4500_series/Source/GCC/startup_XMC4500.asm:466
/* ======================================================================== */
     Insert_ExceptionHandler DAC0_1_IRQHandler
 80005a8:	e7fe      	b.n	80005a8 <DAC0_1_IRQHandler>

080005aa <DAC0_1_IRQHandler_Veneer>:
DAC0_1_IRQHandler_Veneer():
 80005aa:	f8df 0430 	ldr.w	r0, [pc, #1072]	; 80009dc <AllowPLLInitByStartup+0xc6>
 80005ae:	b500      	push	{lr}
 80005b0:	b081      	sub	sp, #4
 80005b2:	4780      	blx	r0
 80005b4:	b001      	add	sp, #4
 80005b6:	bd00      	pop	{pc}

080005b8 <CCU40_0_IRQHandler>:
CCU40_0_IRQHandler():
D:\Software\workspace_2\XMC4500_IO_Flat\Debug/../system/CMSIS/Infineon/XMC4500_series/Source/GCC/startup_XMC4500.asm:468
/* ======================================================================== */
     Insert_ExceptionHandler CCU40_0_IRQHandler
 80005b8:	e7fe      	b.n	80005b8 <CCU40_0_IRQHandler>

080005ba <CCU40_0_IRQHandler_Veneer>:
CCU40_0_IRQHandler_Veneer():
 80005ba:	f8df 0424 	ldr.w	r0, [pc, #1060]	; 80009e0 <AllowPLLInitByStartup+0xca>
 80005be:	b500      	push	{lr}
 80005c0:	b081      	sub	sp, #4
 80005c2:	4780      	blx	r0
 80005c4:	b001      	add	sp, #4
 80005c6:	bd00      	pop	{pc}

080005c8 <CCU40_1_IRQHandler>:
CCU40_1_IRQHandler():
D:\Software\workspace_2\XMC4500_IO_Flat\Debug/../system/CMSIS/Infineon/XMC4500_series/Source/GCC/startup_XMC4500.asm:470
/* ======================================================================== */
     Insert_ExceptionHandler CCU40_1_IRQHandler
 80005c8:	e7fe      	b.n	80005c8 <CCU40_1_IRQHandler>

080005ca <CCU40_1_IRQHandler_Veneer>:
CCU40_1_IRQHandler_Veneer():
 80005ca:	f8df 0418 	ldr.w	r0, [pc, #1048]	; 80009e4 <AllowPLLInitByStartup+0xce>
 80005ce:	b500      	push	{lr}
 80005d0:	b081      	sub	sp, #4
 80005d2:	4780      	blx	r0
 80005d4:	b001      	add	sp, #4
 80005d6:	bd00      	pop	{pc}

080005d8 <CCU40_2_IRQHandler>:
CCU40_2_IRQHandler():
D:\Software\workspace_2\XMC4500_IO_Flat\Debug/../system/CMSIS/Infineon/XMC4500_series/Source/GCC/startup_XMC4500.asm:472
/* ======================================================================== */
     Insert_ExceptionHandler CCU40_2_IRQHandler
 80005d8:	e7fe      	b.n	80005d8 <CCU40_2_IRQHandler>

080005da <CCU40_2_IRQHandler_Veneer>:
CCU40_2_IRQHandler_Veneer():
 80005da:	f8df 040c 	ldr.w	r0, [pc, #1036]	; 80009e8 <AllowPLLInitByStartup+0xd2>
 80005de:	b500      	push	{lr}
 80005e0:	b081      	sub	sp, #4
 80005e2:	4780      	blx	r0
 80005e4:	b001      	add	sp, #4
 80005e6:	bd00      	pop	{pc}

080005e8 <CCU40_3_IRQHandler>:
CCU40_3_IRQHandler():
D:\Software\workspace_2\XMC4500_IO_Flat\Debug/../system/CMSIS/Infineon/XMC4500_series/Source/GCC/startup_XMC4500.asm:474
/* ======================================================================== */
     Insert_ExceptionHandler CCU40_3_IRQHandler
 80005e8:	e7fe      	b.n	80005e8 <CCU40_3_IRQHandler>

080005ea <CCU40_3_IRQHandler_Veneer>:
CCU40_3_IRQHandler_Veneer():
 80005ea:	f8df 0400 	ldr.w	r0, [pc, #1024]	; 80009ec <AllowPLLInitByStartup+0xd6>
 80005ee:	b500      	push	{lr}
 80005f0:	b081      	sub	sp, #4
 80005f2:	4780      	blx	r0
 80005f4:	b001      	add	sp, #4
 80005f6:	bd00      	pop	{pc}

080005f8 <CCU41_0_IRQHandler>:
CCU41_0_IRQHandler():
D:\Software\workspace_2\XMC4500_IO_Flat\Debug/../system/CMSIS/Infineon/XMC4500_series/Source/GCC/startup_XMC4500.asm:476
/* ======================================================================== */
     Insert_ExceptionHandler CCU41_0_IRQHandler
 80005f8:	e7fe      	b.n	80005f8 <CCU41_0_IRQHandler>

080005fa <CCU41_0_IRQHandler_Veneer>:
CCU41_0_IRQHandler_Veneer():
 80005fa:	48fd      	ldr	r0, [pc, #1012]	; (80009f0 <AllowPLLInitByStartup+0xda>)
 80005fc:	b500      	push	{lr}
 80005fe:	b081      	sub	sp, #4
 8000600:	4780      	blx	r0
 8000602:	b001      	add	sp, #4
 8000604:	bd00      	pop	{pc}

08000606 <CCU41_1_IRQHandler>:
CCU41_1_IRQHandler():
D:\Software\workspace_2\XMC4500_IO_Flat\Debug/../system/CMSIS/Infineon/XMC4500_series/Source/GCC/startup_XMC4500.asm:478
/* ======================================================================== */
     Insert_ExceptionHandler CCU41_1_IRQHandler
 8000606:	e7fe      	b.n	8000606 <CCU41_1_IRQHandler>

08000608 <CCU41_1_IRQHandler_Veneer>:
CCU41_1_IRQHandler_Veneer():
 8000608:	48fa      	ldr	r0, [pc, #1000]	; (80009f4 <AllowPLLInitByStartup+0xde>)
 800060a:	b500      	push	{lr}
 800060c:	b081      	sub	sp, #4
 800060e:	4780      	blx	r0
 8000610:	b001      	add	sp, #4
 8000612:	bd00      	pop	{pc}

08000614 <CCU41_2_IRQHandler>:
CCU41_2_IRQHandler():
D:\Software\workspace_2\XMC4500_IO_Flat\Debug/../system/CMSIS/Infineon/XMC4500_series/Source/GCC/startup_XMC4500.asm:480
/* ======================================================================== */
     Insert_ExceptionHandler CCU41_2_IRQHandler
 8000614:	e7fe      	b.n	8000614 <CCU41_2_IRQHandler>

08000616 <CCU41_2_IRQHandler_Veneer>:
CCU41_2_IRQHandler_Veneer():
 8000616:	48f8      	ldr	r0, [pc, #992]	; (80009f8 <AllowPLLInitByStartup+0xe2>)
 8000618:	b500      	push	{lr}
 800061a:	b081      	sub	sp, #4
 800061c:	4780      	blx	r0
 800061e:	b001      	add	sp, #4
 8000620:	bd00      	pop	{pc}

08000622 <CCU41_3_IRQHandler>:
CCU41_3_IRQHandler():
D:\Software\workspace_2\XMC4500_IO_Flat\Debug/../system/CMSIS/Infineon/XMC4500_series/Source/GCC/startup_XMC4500.asm:482
/* ======================================================================== */
     Insert_ExceptionHandler CCU41_3_IRQHandler
 8000622:	e7fe      	b.n	8000622 <CCU41_3_IRQHandler>

08000624 <CCU41_3_IRQHandler_Veneer>:
CCU41_3_IRQHandler_Veneer():
 8000624:	48f5      	ldr	r0, [pc, #980]	; (80009fc <AllowPLLInitByStartup+0xe6>)
 8000626:	b500      	push	{lr}
 8000628:	b081      	sub	sp, #4
 800062a:	4780      	blx	r0
 800062c:	b001      	add	sp, #4
 800062e:	bd00      	pop	{pc}

08000630 <CCU42_0_IRQHandler>:
CCU42_0_IRQHandler():
D:\Software\workspace_2\XMC4500_IO_Flat\Debug/../system/CMSIS/Infineon/XMC4500_series/Source/GCC/startup_XMC4500.asm:484
/* ======================================================================== */
     Insert_ExceptionHandler CCU42_0_IRQHandler
 8000630:	e7fe      	b.n	8000630 <CCU42_0_IRQHandler>

08000632 <CCU42_0_IRQHandler_Veneer>:
CCU42_0_IRQHandler_Veneer():
 8000632:	48f3      	ldr	r0, [pc, #972]	; (8000a00 <AllowPLLInitByStartup+0xea>)
 8000634:	b500      	push	{lr}
 8000636:	b081      	sub	sp, #4
 8000638:	4780      	blx	r0
 800063a:	b001      	add	sp, #4
 800063c:	bd00      	pop	{pc}

0800063e <CCU42_1_IRQHandler>:
CCU42_1_IRQHandler():
D:\Software\workspace_2\XMC4500_IO_Flat\Debug/../system/CMSIS/Infineon/XMC4500_series/Source/GCC/startup_XMC4500.asm:486
/* ======================================================================== */
     Insert_ExceptionHandler CCU42_1_IRQHandler
 800063e:	e7fe      	b.n	800063e <CCU42_1_IRQHandler>

08000640 <CCU42_1_IRQHandler_Veneer>:
CCU42_1_IRQHandler_Veneer():
 8000640:	48f0      	ldr	r0, [pc, #960]	; (8000a04 <AllowPLLInitByStartup+0xee>)
 8000642:	b500      	push	{lr}
 8000644:	b081      	sub	sp, #4
 8000646:	4780      	blx	r0
 8000648:	b001      	add	sp, #4
 800064a:	bd00      	pop	{pc}

0800064c <CCU42_2_IRQHandler>:
CCU42_2_IRQHandler():
D:\Software\workspace_2\XMC4500_IO_Flat\Debug/../system/CMSIS/Infineon/XMC4500_series/Source/GCC/startup_XMC4500.asm:488
/* ======================================================================== */
     Insert_ExceptionHandler CCU42_2_IRQHandler
 800064c:	e7fe      	b.n	800064c <CCU42_2_IRQHandler>

0800064e <CCU42_2_IRQHandler_Veneer>:
CCU42_2_IRQHandler_Veneer():
 800064e:	48ee      	ldr	r0, [pc, #952]	; (8000a08 <AllowPLLInitByStartup+0xf2>)
 8000650:	b500      	push	{lr}
 8000652:	b081      	sub	sp, #4
 8000654:	4780      	blx	r0
 8000656:	b001      	add	sp, #4
 8000658:	bd00      	pop	{pc}

0800065a <CCU42_3_IRQHandler>:
CCU42_3_IRQHandler():
D:\Software\workspace_2\XMC4500_IO_Flat\Debug/../system/CMSIS/Infineon/XMC4500_series/Source/GCC/startup_XMC4500.asm:490
/* ======================================================================== */
     Insert_ExceptionHandler CCU42_3_IRQHandler
 800065a:	e7fe      	b.n	800065a <CCU42_3_IRQHandler>

0800065c <CCU42_3_IRQHandler_Veneer>:
CCU42_3_IRQHandler_Veneer():
 800065c:	48eb      	ldr	r0, [pc, #940]	; (8000a0c <AllowPLLInitByStartup+0xf6>)
 800065e:	b500      	push	{lr}
 8000660:	b081      	sub	sp, #4
 8000662:	4780      	blx	r0
 8000664:	b001      	add	sp, #4
 8000666:	bd00      	pop	{pc}

08000668 <CCU43_0_IRQHandler>:
CCU43_0_IRQHandler():
D:\Software\workspace_2\XMC4500_IO_Flat\Debug/../system/CMSIS/Infineon/XMC4500_series/Source/GCC/startup_XMC4500.asm:492
/* ======================================================================== */
     Insert_ExceptionHandler CCU43_0_IRQHandler
 8000668:	e7fe      	b.n	8000668 <CCU43_0_IRQHandler>

0800066a <CCU43_0_IRQHandler_Veneer>:
CCU43_0_IRQHandler_Veneer():
 800066a:	48e9      	ldr	r0, [pc, #932]	; (8000a10 <AllowPLLInitByStartup+0xfa>)
 800066c:	b500      	push	{lr}
 800066e:	b081      	sub	sp, #4
 8000670:	4780      	blx	r0
 8000672:	b001      	add	sp, #4
 8000674:	bd00      	pop	{pc}

08000676 <CCU43_1_IRQHandler>:
CCU43_1_IRQHandler():
D:\Software\workspace_2\XMC4500_IO_Flat\Debug/../system/CMSIS/Infineon/XMC4500_series/Source/GCC/startup_XMC4500.asm:494
/* ======================================================================== */
     Insert_ExceptionHandler CCU43_1_IRQHandler
 8000676:	e7fe      	b.n	8000676 <CCU43_1_IRQHandler>

08000678 <CCU43_1_IRQHandler_Veneer>:
CCU43_1_IRQHandler_Veneer():
 8000678:	48e6      	ldr	r0, [pc, #920]	; (8000a14 <AllowPLLInitByStartup+0xfe>)
 800067a:	b500      	push	{lr}
 800067c:	b081      	sub	sp, #4
 800067e:	4780      	blx	r0
 8000680:	b001      	add	sp, #4
 8000682:	bd00      	pop	{pc}

08000684 <CCU43_2_IRQHandler>:
CCU43_2_IRQHandler():
D:\Software\workspace_2\XMC4500_IO_Flat\Debug/../system/CMSIS/Infineon/XMC4500_series/Source/GCC/startup_XMC4500.asm:496
/* ======================================================================== */
     Insert_ExceptionHandler CCU43_2_IRQHandler
 8000684:	e7fe      	b.n	8000684 <CCU43_2_IRQHandler>

08000686 <CCU43_2_IRQHandler_Veneer>:
CCU43_2_IRQHandler_Veneer():
 8000686:	48e4      	ldr	r0, [pc, #912]	; (8000a18 <AllowPLLInitByStartup+0x102>)
 8000688:	b500      	push	{lr}
 800068a:	b081      	sub	sp, #4
 800068c:	4780      	blx	r0
 800068e:	b001      	add	sp, #4
 8000690:	bd00      	pop	{pc}

08000692 <CCU43_3_IRQHandler>:
CCU43_3_IRQHandler():
D:\Software\workspace_2\XMC4500_IO_Flat\Debug/../system/CMSIS/Infineon/XMC4500_series/Source/GCC/startup_XMC4500.asm:498
/* ======================================================================== */
     Insert_ExceptionHandler CCU43_3_IRQHandler
 8000692:	e7fe      	b.n	8000692 <CCU43_3_IRQHandler>

08000694 <CCU43_3_IRQHandler_Veneer>:
CCU43_3_IRQHandler_Veneer():
 8000694:	48e1      	ldr	r0, [pc, #900]	; (8000a1c <AllowPLLInitByStartup+0x106>)
 8000696:	b500      	push	{lr}
 8000698:	b081      	sub	sp, #4
 800069a:	4780      	blx	r0
 800069c:	b001      	add	sp, #4
 800069e:	bd00      	pop	{pc}

080006a0 <CCU80_0_IRQHandler>:
CCU80_0_IRQHandler():
D:\Software\workspace_2\XMC4500_IO_Flat\Debug/../system/CMSIS/Infineon/XMC4500_series/Source/GCC/startup_XMC4500.asm:500
/* ======================================================================== */
     Insert_ExceptionHandler CCU80_0_IRQHandler
 80006a0:	e7fe      	b.n	80006a0 <CCU80_0_IRQHandler>

080006a2 <CCU80_0_IRQHandler_Veneer>:
CCU80_0_IRQHandler_Veneer():
 80006a2:	48df      	ldr	r0, [pc, #892]	; (8000a20 <AllowPLLInitByStartup+0x10a>)
 80006a4:	b500      	push	{lr}
 80006a6:	b081      	sub	sp, #4
 80006a8:	4780      	blx	r0
 80006aa:	b001      	add	sp, #4
 80006ac:	bd00      	pop	{pc}

080006ae <CCU80_1_IRQHandler>:
CCU80_1_IRQHandler():
D:\Software\workspace_2\XMC4500_IO_Flat\Debug/../system/CMSIS/Infineon/XMC4500_series/Source/GCC/startup_XMC4500.asm:502
/* ======================================================================== */
     Insert_ExceptionHandler CCU80_1_IRQHandler
 80006ae:	e7fe      	b.n	80006ae <CCU80_1_IRQHandler>

080006b0 <CCU80_1_IRQHandler_Veneer>:
CCU80_1_IRQHandler_Veneer():
 80006b0:	48dc      	ldr	r0, [pc, #880]	; (8000a24 <AllowPLLInitByStartup+0x10e>)
 80006b2:	b500      	push	{lr}
 80006b4:	b081      	sub	sp, #4
 80006b6:	4780      	blx	r0
 80006b8:	b001      	add	sp, #4
 80006ba:	bd00      	pop	{pc}

080006bc <CCU80_2_IRQHandler>:
CCU80_2_IRQHandler():
D:\Software\workspace_2\XMC4500_IO_Flat\Debug/../system/CMSIS/Infineon/XMC4500_series/Source/GCC/startup_XMC4500.asm:504
/* ======================================================================== */
     Insert_ExceptionHandler CCU80_2_IRQHandler
 80006bc:	e7fe      	b.n	80006bc <CCU80_2_IRQHandler>

080006be <CCU80_2_IRQHandler_Veneer>:
CCU80_2_IRQHandler_Veneer():
 80006be:	48da      	ldr	r0, [pc, #872]	; (8000a28 <AllowPLLInitByStartup+0x112>)
 80006c0:	b500      	push	{lr}
 80006c2:	b081      	sub	sp, #4
 80006c4:	4780      	blx	r0
 80006c6:	b001      	add	sp, #4
 80006c8:	bd00      	pop	{pc}

080006ca <CCU80_3_IRQHandler>:
CCU80_3_IRQHandler():
D:\Software\workspace_2\XMC4500_IO_Flat\Debug/../system/CMSIS/Infineon/XMC4500_series/Source/GCC/startup_XMC4500.asm:506
/* ======================================================================== */
     Insert_ExceptionHandler CCU80_3_IRQHandler
 80006ca:	e7fe      	b.n	80006ca <CCU80_3_IRQHandler>

080006cc <CCU80_3_IRQHandler_Veneer>:
CCU80_3_IRQHandler_Veneer():
 80006cc:	48d7      	ldr	r0, [pc, #860]	; (8000a2c <AllowPLLInitByStartup+0x116>)
 80006ce:	b500      	push	{lr}
 80006d0:	b081      	sub	sp, #4
 80006d2:	4780      	blx	r0
 80006d4:	b001      	add	sp, #4
 80006d6:	bd00      	pop	{pc}

080006d8 <CCU81_0_IRQHandler>:
CCU81_0_IRQHandler():
D:\Software\workspace_2\XMC4500_IO_Flat\Debug/../system/CMSIS/Infineon/XMC4500_series/Source/GCC/startup_XMC4500.asm:508
/* ======================================================================== */
     Insert_ExceptionHandler CCU81_0_IRQHandler
 80006d8:	e7fe      	b.n	80006d8 <CCU81_0_IRQHandler>

080006da <CCU81_0_IRQHandler_Veneer>:
CCU81_0_IRQHandler_Veneer():
 80006da:	48d5      	ldr	r0, [pc, #852]	; (8000a30 <AllowPLLInitByStartup+0x11a>)
 80006dc:	b500      	push	{lr}
 80006de:	b081      	sub	sp, #4
 80006e0:	4780      	blx	r0
 80006e2:	b001      	add	sp, #4
 80006e4:	bd00      	pop	{pc}

080006e6 <CCU81_1_IRQHandler>:
CCU81_1_IRQHandler():
D:\Software\workspace_2\XMC4500_IO_Flat\Debug/../system/CMSIS/Infineon/XMC4500_series/Source/GCC/startup_XMC4500.asm:510
/* ======================================================================== */
     Insert_ExceptionHandler CCU81_1_IRQHandler
 80006e6:	e7fe      	b.n	80006e6 <CCU81_1_IRQHandler>

080006e8 <CCU81_1_IRQHandler_Veneer>:
CCU81_1_IRQHandler_Veneer():
 80006e8:	48d2      	ldr	r0, [pc, #840]	; (8000a34 <AllowPLLInitByStartup+0x11e>)
 80006ea:	b500      	push	{lr}
 80006ec:	b081      	sub	sp, #4
 80006ee:	4780      	blx	r0
 80006f0:	b001      	add	sp, #4
 80006f2:	bd00      	pop	{pc}

080006f4 <CCU81_2_IRQHandler>:
CCU81_2_IRQHandler():
D:\Software\workspace_2\XMC4500_IO_Flat\Debug/../system/CMSIS/Infineon/XMC4500_series/Source/GCC/startup_XMC4500.asm:512
/* ======================================================================== */
     Insert_ExceptionHandler CCU81_2_IRQHandler
 80006f4:	e7fe      	b.n	80006f4 <CCU81_2_IRQHandler>

080006f6 <CCU81_2_IRQHandler_Veneer>:
CCU81_2_IRQHandler_Veneer():
 80006f6:	48d0      	ldr	r0, [pc, #832]	; (8000a38 <AllowPLLInitByStartup+0x122>)
 80006f8:	b500      	push	{lr}
 80006fa:	b081      	sub	sp, #4
 80006fc:	4780      	blx	r0
 80006fe:	b001      	add	sp, #4
 8000700:	bd00      	pop	{pc}

08000702 <CCU81_3_IRQHandler>:
CCU81_3_IRQHandler():
D:\Software\workspace_2\XMC4500_IO_Flat\Debug/../system/CMSIS/Infineon/XMC4500_series/Source/GCC/startup_XMC4500.asm:514
/* ======================================================================== */
     Insert_ExceptionHandler CCU81_3_IRQHandler
 8000702:	e7fe      	b.n	8000702 <CCU81_3_IRQHandler>

08000704 <CCU81_3_IRQHandler_Veneer>:
CCU81_3_IRQHandler_Veneer():
 8000704:	48cd      	ldr	r0, [pc, #820]	; (8000a3c <AllowPLLInitByStartup+0x126>)
 8000706:	b500      	push	{lr}
 8000708:	b081      	sub	sp, #4
 800070a:	4780      	blx	r0
 800070c:	b001      	add	sp, #4
 800070e:	bd00      	pop	{pc}

08000710 <POSIF0_0_IRQHandler>:
POSIF0_0_IRQHandler():
D:\Software\workspace_2\XMC4500_IO_Flat\Debug/../system/CMSIS/Infineon/XMC4500_series/Source/GCC/startup_XMC4500.asm:516
/* ======================================================================== */
     Insert_ExceptionHandler POSIF0_0_IRQHandler
 8000710:	e7fe      	b.n	8000710 <POSIF0_0_IRQHandler>

08000712 <POSIF0_0_IRQHandler_Veneer>:
POSIF0_0_IRQHandler_Veneer():
 8000712:	48cb      	ldr	r0, [pc, #812]	; (8000a40 <AllowPLLInitByStartup+0x12a>)
 8000714:	b500      	push	{lr}
 8000716:	b081      	sub	sp, #4
 8000718:	4780      	blx	r0
 800071a:	b001      	add	sp, #4
 800071c:	bd00      	pop	{pc}

0800071e <POSIF0_1_IRQHandler>:
POSIF0_1_IRQHandler():
D:\Software\workspace_2\XMC4500_IO_Flat\Debug/../system/CMSIS/Infineon/XMC4500_series/Source/GCC/startup_XMC4500.asm:518
/* ======================================================================== */
     Insert_ExceptionHandler POSIF0_1_IRQHandler
 800071e:	e7fe      	b.n	800071e <POSIF0_1_IRQHandler>

08000720 <POSIF0_1_IRQHandler_Veneer>:
POSIF0_1_IRQHandler_Veneer():
 8000720:	48c8      	ldr	r0, [pc, #800]	; (8000a44 <AllowPLLInitByStartup+0x12e>)
 8000722:	b500      	push	{lr}
 8000724:	b081      	sub	sp, #4
 8000726:	4780      	blx	r0
 8000728:	b001      	add	sp, #4
 800072a:	bd00      	pop	{pc}

0800072c <POSIF1_0_IRQHandler>:
POSIF1_0_IRQHandler():
D:\Software\workspace_2\XMC4500_IO_Flat\Debug/../system/CMSIS/Infineon/XMC4500_series/Source/GCC/startup_XMC4500.asm:520
/* ======================================================================== */
     Insert_ExceptionHandler POSIF1_0_IRQHandler
 800072c:	e7fe      	b.n	800072c <POSIF1_0_IRQHandler>

0800072e <POSIF1_0_IRQHandler_Veneer>:
POSIF1_0_IRQHandler_Veneer():
 800072e:	48c6      	ldr	r0, [pc, #792]	; (8000a48 <AllowPLLInitByStartup+0x132>)
 8000730:	b500      	push	{lr}
 8000732:	b081      	sub	sp, #4
 8000734:	4780      	blx	r0
 8000736:	b001      	add	sp, #4
 8000738:	bd00      	pop	{pc}

0800073a <POSIF1_1_IRQHandler>:
POSIF1_1_IRQHandler():
D:\Software\workspace_2\XMC4500_IO_Flat\Debug/../system/CMSIS/Infineon/XMC4500_series/Source/GCC/startup_XMC4500.asm:522
/* ======================================================================== */
     Insert_ExceptionHandler POSIF1_1_IRQHandler
 800073a:	e7fe      	b.n	800073a <POSIF1_1_IRQHandler>

0800073c <POSIF1_1_IRQHandler_Veneer>:
POSIF1_1_IRQHandler_Veneer():
 800073c:	48c3      	ldr	r0, [pc, #780]	; (8000a4c <AllowPLLInitByStartup+0x136>)
 800073e:	b500      	push	{lr}
 8000740:	b081      	sub	sp, #4
 8000742:	4780      	blx	r0
 8000744:	b001      	add	sp, #4
 8000746:	bd00      	pop	{pc}

08000748 <CAN0_0_IRQHandler>:
CAN0_0_IRQHandler():
D:\Software\workspace_2\XMC4500_IO_Flat\Debug/../system/CMSIS/Infineon/XMC4500_series/Source/GCC/startup_XMC4500.asm:524
/* ======================================================================== */
     Insert_ExceptionHandler CAN0_0_IRQHandler
 8000748:	e7fe      	b.n	8000748 <CAN0_0_IRQHandler>

0800074a <CAN0_0_IRQHandler_Veneer>:
CAN0_0_IRQHandler_Veneer():
 800074a:	48c1      	ldr	r0, [pc, #772]	; (8000a50 <AllowPLLInitByStartup+0x13a>)
 800074c:	b500      	push	{lr}
 800074e:	b081      	sub	sp, #4
 8000750:	4780      	blx	r0
 8000752:	b001      	add	sp, #4
 8000754:	bd00      	pop	{pc}

08000756 <CAN0_1_IRQHandler>:
CAN0_1_IRQHandler():
D:\Software\workspace_2\XMC4500_IO_Flat\Debug/../system/CMSIS/Infineon/XMC4500_series/Source/GCC/startup_XMC4500.asm:526
/* ======================================================================== */
     Insert_ExceptionHandler CAN0_1_IRQHandler
 8000756:	e7fe      	b.n	8000756 <CAN0_1_IRQHandler>

08000758 <CAN0_1_IRQHandler_Veneer>:
CAN0_1_IRQHandler_Veneer():
 8000758:	48be      	ldr	r0, [pc, #760]	; (8000a54 <AllowPLLInitByStartup+0x13e>)
 800075a:	b500      	push	{lr}
 800075c:	b081      	sub	sp, #4
 800075e:	4780      	blx	r0
 8000760:	b001      	add	sp, #4
 8000762:	bd00      	pop	{pc}

08000764 <CAN0_2_IRQHandler>:
CAN0_2_IRQHandler():
D:\Software\workspace_2\XMC4500_IO_Flat\Debug/../system/CMSIS/Infineon/XMC4500_series/Source/GCC/startup_XMC4500.asm:528
/* ======================================================================== */
     Insert_ExceptionHandler CAN0_2_IRQHandler
 8000764:	e7fe      	b.n	8000764 <CAN0_2_IRQHandler>

08000766 <CAN0_2_IRQHandler_Veneer>:
CAN0_2_IRQHandler_Veneer():
 8000766:	48bc      	ldr	r0, [pc, #752]	; (8000a58 <AllowPLLInitByStartup+0x142>)
 8000768:	b500      	push	{lr}
 800076a:	b081      	sub	sp, #4
 800076c:	4780      	blx	r0
 800076e:	b001      	add	sp, #4
 8000770:	bd00      	pop	{pc}

08000772 <CAN0_3_IRQHandler>:
CAN0_3_IRQHandler():
D:\Software\workspace_2\XMC4500_IO_Flat\Debug/../system/CMSIS/Infineon/XMC4500_series/Source/GCC/startup_XMC4500.asm:530
/* ======================================================================== */
     Insert_ExceptionHandler CAN0_3_IRQHandler
 8000772:	e7fe      	b.n	8000772 <CAN0_3_IRQHandler>

08000774 <CAN0_3_IRQHandler_Veneer>:
CAN0_3_IRQHandler_Veneer():
 8000774:	48b9      	ldr	r0, [pc, #740]	; (8000a5c <AllowPLLInitByStartup+0x146>)
 8000776:	b500      	push	{lr}
 8000778:	b081      	sub	sp, #4
 800077a:	4780      	blx	r0
 800077c:	b001      	add	sp, #4
 800077e:	bd00      	pop	{pc}

08000780 <CAN0_4_IRQHandler>:
CAN0_4_IRQHandler():
D:\Software\workspace_2\XMC4500_IO_Flat\Debug/../system/CMSIS/Infineon/XMC4500_series/Source/GCC/startup_XMC4500.asm:532
/* ======================================================================== */
     Insert_ExceptionHandler CAN0_4_IRQHandler
 8000780:	e7fe      	b.n	8000780 <CAN0_4_IRQHandler>

08000782 <CAN0_4_IRQHandler_Veneer>:
CAN0_4_IRQHandler_Veneer():
 8000782:	48b7      	ldr	r0, [pc, #732]	; (8000a60 <AllowPLLInitByStartup+0x14a>)
 8000784:	b500      	push	{lr}
 8000786:	b081      	sub	sp, #4
 8000788:	4780      	blx	r0
 800078a:	b001      	add	sp, #4
 800078c:	bd00      	pop	{pc}

0800078e <CAN0_5_IRQHandler>:
CAN0_5_IRQHandler():
D:\Software\workspace_2\XMC4500_IO_Flat\Debug/../system/CMSIS/Infineon/XMC4500_series/Source/GCC/startup_XMC4500.asm:534
/* ======================================================================== */
     Insert_ExceptionHandler CAN0_5_IRQHandler
 800078e:	e7fe      	b.n	800078e <CAN0_5_IRQHandler>

08000790 <CAN0_5_IRQHandler_Veneer>:
CAN0_5_IRQHandler_Veneer():
 8000790:	48b4      	ldr	r0, [pc, #720]	; (8000a64 <AllowPLLInitByStartup+0x14e>)
 8000792:	b500      	push	{lr}
 8000794:	b081      	sub	sp, #4
 8000796:	4780      	blx	r0
 8000798:	b001      	add	sp, #4
 800079a:	bd00      	pop	{pc}

0800079c <CAN0_6_IRQHandler>:
CAN0_6_IRQHandler():
D:\Software\workspace_2\XMC4500_IO_Flat\Debug/../system/CMSIS/Infineon/XMC4500_series/Source/GCC/startup_XMC4500.asm:536
/* ======================================================================== */
     Insert_ExceptionHandler CAN0_6_IRQHandler
 800079c:	e7fe      	b.n	800079c <CAN0_6_IRQHandler>

0800079e <CAN0_6_IRQHandler_Veneer>:
CAN0_6_IRQHandler_Veneer():
 800079e:	48b2      	ldr	r0, [pc, #712]	; (8000a68 <AllowPLLInitByStartup+0x152>)
 80007a0:	b500      	push	{lr}
 80007a2:	b081      	sub	sp, #4
 80007a4:	4780      	blx	r0
 80007a6:	b001      	add	sp, #4
 80007a8:	bd00      	pop	{pc}

080007aa <CAN0_7_IRQHandler>:
CAN0_7_IRQHandler():
D:\Software\workspace_2\XMC4500_IO_Flat\Debug/../system/CMSIS/Infineon/XMC4500_series/Source/GCC/startup_XMC4500.asm:538
/* ======================================================================== */
     Insert_ExceptionHandler CAN0_7_IRQHandler
 80007aa:	e7fe      	b.n	80007aa <CAN0_7_IRQHandler>

080007ac <CAN0_7_IRQHandler_Veneer>:
CAN0_7_IRQHandler_Veneer():
 80007ac:	48af      	ldr	r0, [pc, #700]	; (8000a6c <AllowPLLInitByStartup+0x156>)
 80007ae:	b500      	push	{lr}
 80007b0:	b081      	sub	sp, #4
 80007b2:	4780      	blx	r0
 80007b4:	b001      	add	sp, #4
 80007b6:	bd00      	pop	{pc}

080007b8 <USIC0_0_IRQHandler>:
USIC0_0_IRQHandler():
D:\Software\workspace_2\XMC4500_IO_Flat\Debug/../system/CMSIS/Infineon/XMC4500_series/Source/GCC/startup_XMC4500.asm:540
/* ======================================================================== */
     Insert_ExceptionHandler USIC0_0_IRQHandler
 80007b8:	e7fe      	b.n	80007b8 <USIC0_0_IRQHandler>

080007ba <USIC0_0_IRQHandler_Veneer>:
USIC0_0_IRQHandler_Veneer():
 80007ba:	48ad      	ldr	r0, [pc, #692]	; (8000a70 <AllowPLLInitByStartup+0x15a>)
 80007bc:	b500      	push	{lr}
 80007be:	b081      	sub	sp, #4
 80007c0:	4780      	blx	r0
 80007c2:	b001      	add	sp, #4
 80007c4:	bd00      	pop	{pc}

080007c6 <USIC0_1_IRQHandler>:
USIC0_1_IRQHandler():
D:\Software\workspace_2\XMC4500_IO_Flat\Debug/../system/CMSIS/Infineon/XMC4500_series/Source/GCC/startup_XMC4500.asm:542
/* ======================================================================== */
     Insert_ExceptionHandler USIC0_1_IRQHandler
 80007c6:	e7fe      	b.n	80007c6 <USIC0_1_IRQHandler>

080007c8 <USIC0_1_IRQHandler_Veneer>:
USIC0_1_IRQHandler_Veneer():
 80007c8:	48aa      	ldr	r0, [pc, #680]	; (8000a74 <AllowPLLInitByStartup+0x15e>)
 80007ca:	b500      	push	{lr}
 80007cc:	b081      	sub	sp, #4
 80007ce:	4780      	blx	r0
 80007d0:	b001      	add	sp, #4
 80007d2:	bd00      	pop	{pc}

080007d4 <USIC0_2_IRQHandler>:
USIC0_2_IRQHandler():
D:\Software\workspace_2\XMC4500_IO_Flat\Debug/../system/CMSIS/Infineon/XMC4500_series/Source/GCC/startup_XMC4500.asm:544
/* ======================================================================== */
     Insert_ExceptionHandler USIC0_2_IRQHandler
 80007d4:	e7fe      	b.n	80007d4 <USIC0_2_IRQHandler>

080007d6 <USIC0_2_IRQHandler_Veneer>:
USIC0_2_IRQHandler_Veneer():
 80007d6:	48a8      	ldr	r0, [pc, #672]	; (8000a78 <AllowPLLInitByStartup+0x162>)
 80007d8:	b500      	push	{lr}
 80007da:	b081      	sub	sp, #4
 80007dc:	4780      	blx	r0
 80007de:	b001      	add	sp, #4
 80007e0:	bd00      	pop	{pc}

080007e2 <USIC0_3_IRQHandler>:
USIC0_3_IRQHandler():
D:\Software\workspace_2\XMC4500_IO_Flat\Debug/../system/CMSIS/Infineon/XMC4500_series/Source/GCC/startup_XMC4500.asm:546
/* ======================================================================== */
     Insert_ExceptionHandler USIC0_3_IRQHandler
 80007e2:	e7fe      	b.n	80007e2 <USIC0_3_IRQHandler>

080007e4 <USIC0_3_IRQHandler_Veneer>:
USIC0_3_IRQHandler_Veneer():
 80007e4:	48a5      	ldr	r0, [pc, #660]	; (8000a7c <AllowPLLInitByStartup+0x166>)
 80007e6:	b500      	push	{lr}
 80007e8:	b081      	sub	sp, #4
 80007ea:	4780      	blx	r0
 80007ec:	b001      	add	sp, #4
 80007ee:	bd00      	pop	{pc}

080007f0 <USIC0_4_IRQHandler>:
USIC0_4_IRQHandler():
D:\Software\workspace_2\XMC4500_IO_Flat\Debug/../system/CMSIS/Infineon/XMC4500_series/Source/GCC/startup_XMC4500.asm:548
/* ======================================================================== */
     Insert_ExceptionHandler USIC0_4_IRQHandler
 80007f0:	e7fe      	b.n	80007f0 <USIC0_4_IRQHandler>

080007f2 <USIC0_4_IRQHandler_Veneer>:
USIC0_4_IRQHandler_Veneer():
 80007f2:	48a3      	ldr	r0, [pc, #652]	; (8000a80 <AllowPLLInitByStartup+0x16a>)
 80007f4:	b500      	push	{lr}
 80007f6:	b081      	sub	sp, #4
 80007f8:	4780      	blx	r0
 80007fa:	b001      	add	sp, #4
 80007fc:	bd00      	pop	{pc}

080007fe <USIC0_5_IRQHandler>:
USIC0_5_IRQHandler():
D:\Software\workspace_2\XMC4500_IO_Flat\Debug/../system/CMSIS/Infineon/XMC4500_series/Source/GCC/startup_XMC4500.asm:550
/* ======================================================================== */
     Insert_ExceptionHandler USIC0_5_IRQHandler
 80007fe:	e7fe      	b.n	80007fe <USIC0_5_IRQHandler>

08000800 <USIC0_5_IRQHandler_Veneer>:
USIC0_5_IRQHandler_Veneer():
 8000800:	48a0      	ldr	r0, [pc, #640]	; (8000a84 <AllowPLLInitByStartup+0x16e>)
 8000802:	b500      	push	{lr}
 8000804:	b081      	sub	sp, #4
 8000806:	4780      	blx	r0
 8000808:	b001      	add	sp, #4
 800080a:	bd00      	pop	{pc}

0800080c <USIC1_0_IRQHandler>:
USIC1_0_IRQHandler():
D:\Software\workspace_2\XMC4500_IO_Flat\Debug/../system/CMSIS/Infineon/XMC4500_series/Source/GCC/startup_XMC4500.asm:552
/* ======================================================================== */
     Insert_ExceptionHandler USIC1_0_IRQHandler
 800080c:	e7fe      	b.n	800080c <USIC1_0_IRQHandler>

0800080e <USIC1_0_IRQHandler_Veneer>:
USIC1_0_IRQHandler_Veneer():
 800080e:	489e      	ldr	r0, [pc, #632]	; (8000a88 <AllowPLLInitByStartup+0x172>)
 8000810:	b500      	push	{lr}
 8000812:	b081      	sub	sp, #4
 8000814:	4780      	blx	r0
 8000816:	b001      	add	sp, #4
 8000818:	bd00      	pop	{pc}

0800081a <USIC1_1_IRQHandler>:
USIC1_1_IRQHandler():
D:\Software\workspace_2\XMC4500_IO_Flat\Debug/../system/CMSIS/Infineon/XMC4500_series/Source/GCC/startup_XMC4500.asm:554
/* ======================================================================== */
     Insert_ExceptionHandler USIC1_1_IRQHandler
 800081a:	e7fe      	b.n	800081a <USIC1_1_IRQHandler>

0800081c <USIC1_1_IRQHandler_Veneer>:
USIC1_1_IRQHandler_Veneer():
 800081c:	489b      	ldr	r0, [pc, #620]	; (8000a8c <AllowPLLInitByStartup+0x176>)
 800081e:	b500      	push	{lr}
 8000820:	b081      	sub	sp, #4
 8000822:	4780      	blx	r0
 8000824:	b001      	add	sp, #4
 8000826:	bd00      	pop	{pc}

08000828 <USIC1_2_IRQHandler>:
USIC1_2_IRQHandler():
D:\Software\workspace_2\XMC4500_IO_Flat\Debug/../system/CMSIS/Infineon/XMC4500_series/Source/GCC/startup_XMC4500.asm:556
/* ======================================================================== */
     Insert_ExceptionHandler USIC1_2_IRQHandler
 8000828:	e7fe      	b.n	8000828 <USIC1_2_IRQHandler>

0800082a <USIC1_2_IRQHandler_Veneer>:
USIC1_2_IRQHandler_Veneer():
 800082a:	4899      	ldr	r0, [pc, #612]	; (8000a90 <AllowPLLInitByStartup+0x17a>)
 800082c:	b500      	push	{lr}
 800082e:	b081      	sub	sp, #4
 8000830:	4780      	blx	r0
 8000832:	b001      	add	sp, #4
 8000834:	bd00      	pop	{pc}

08000836 <USIC1_3_IRQHandler>:
USIC1_3_IRQHandler():
D:\Software\workspace_2\XMC4500_IO_Flat\Debug/../system/CMSIS/Infineon/XMC4500_series/Source/GCC/startup_XMC4500.asm:558
/* ======================================================================== */
     Insert_ExceptionHandler USIC1_3_IRQHandler
 8000836:	e7fe      	b.n	8000836 <USIC1_3_IRQHandler>

08000838 <USIC1_3_IRQHandler_Veneer>:
USIC1_3_IRQHandler_Veneer():
 8000838:	4896      	ldr	r0, [pc, #600]	; (8000a94 <AllowPLLInitByStartup+0x17e>)
 800083a:	b500      	push	{lr}
 800083c:	b081      	sub	sp, #4
 800083e:	4780      	blx	r0
 8000840:	b001      	add	sp, #4
 8000842:	bd00      	pop	{pc}

08000844 <USIC1_4_IRQHandler>:
USIC1_4_IRQHandler():
D:\Software\workspace_2\XMC4500_IO_Flat\Debug/../system/CMSIS/Infineon/XMC4500_series/Source/GCC/startup_XMC4500.asm:560
/* ======================================================================== */
     Insert_ExceptionHandler USIC1_4_IRQHandler
 8000844:	e7fe      	b.n	8000844 <USIC1_4_IRQHandler>

08000846 <USIC1_4_IRQHandler_Veneer>:
USIC1_4_IRQHandler_Veneer():
 8000846:	4894      	ldr	r0, [pc, #592]	; (8000a98 <AllowPLLInitByStartup+0x182>)
 8000848:	b500      	push	{lr}
 800084a:	b081      	sub	sp, #4
 800084c:	4780      	blx	r0
 800084e:	b001      	add	sp, #4
 8000850:	bd00      	pop	{pc}

08000852 <USIC1_5_IRQHandler>:
USIC1_5_IRQHandler():
D:\Software\workspace_2\XMC4500_IO_Flat\Debug/../system/CMSIS/Infineon/XMC4500_series/Source/GCC/startup_XMC4500.asm:562
/* ======================================================================== */
     Insert_ExceptionHandler USIC1_5_IRQHandler
 8000852:	e7fe      	b.n	8000852 <USIC1_5_IRQHandler>

08000854 <USIC1_5_IRQHandler_Veneer>:
USIC1_5_IRQHandler_Veneer():
 8000854:	4891      	ldr	r0, [pc, #580]	; (8000a9c <AllowPLLInitByStartup+0x186>)
 8000856:	b500      	push	{lr}
 8000858:	b081      	sub	sp, #4
 800085a:	4780      	blx	r0
 800085c:	b001      	add	sp, #4
 800085e:	bd00      	pop	{pc}

08000860 <USIC2_0_IRQHandler>:
USIC2_0_IRQHandler():
D:\Software\workspace_2\XMC4500_IO_Flat\Debug/../system/CMSIS/Infineon/XMC4500_series/Source/GCC/startup_XMC4500.asm:564
/* ======================================================================== */
     Insert_ExceptionHandler USIC2_0_IRQHandler
 8000860:	e7fe      	b.n	8000860 <USIC2_0_IRQHandler>

08000862 <USIC2_0_IRQHandler_Veneer>:
USIC2_0_IRQHandler_Veneer():
 8000862:	488f      	ldr	r0, [pc, #572]	; (8000aa0 <AllowPLLInitByStartup+0x18a>)
 8000864:	b500      	push	{lr}
 8000866:	b081      	sub	sp, #4
 8000868:	4780      	blx	r0
 800086a:	b001      	add	sp, #4
 800086c:	bd00      	pop	{pc}

0800086e <USIC2_1_IRQHandler>:
USIC2_1_IRQHandler():
D:\Software\workspace_2\XMC4500_IO_Flat\Debug/../system/CMSIS/Infineon/XMC4500_series/Source/GCC/startup_XMC4500.asm:566
/* ======================================================================== */
     Insert_ExceptionHandler USIC2_1_IRQHandler
 800086e:	e7fe      	b.n	800086e <USIC2_1_IRQHandler>

08000870 <USIC2_1_IRQHandler_Veneer>:
USIC2_1_IRQHandler_Veneer():
 8000870:	488c      	ldr	r0, [pc, #560]	; (8000aa4 <AllowPLLInitByStartup+0x18e>)
 8000872:	b500      	push	{lr}
 8000874:	b081      	sub	sp, #4
 8000876:	4780      	blx	r0
 8000878:	b001      	add	sp, #4
 800087a:	bd00      	pop	{pc}

0800087c <USIC2_2_IRQHandler>:
USIC2_2_IRQHandler():
D:\Software\workspace_2\XMC4500_IO_Flat\Debug/../system/CMSIS/Infineon/XMC4500_series/Source/GCC/startup_XMC4500.asm:568
/* ======================================================================== */
     Insert_ExceptionHandler USIC2_2_IRQHandler
 800087c:	e7fe      	b.n	800087c <USIC2_2_IRQHandler>

0800087e <USIC2_2_IRQHandler_Veneer>:
USIC2_2_IRQHandler_Veneer():
 800087e:	488a      	ldr	r0, [pc, #552]	; (8000aa8 <AllowPLLInitByStartup+0x192>)
 8000880:	b500      	push	{lr}
 8000882:	b081      	sub	sp, #4
 8000884:	4780      	blx	r0
 8000886:	b001      	add	sp, #4
 8000888:	bd00      	pop	{pc}

0800088a <USIC2_3_IRQHandler>:
USIC2_3_IRQHandler():
D:\Software\workspace_2\XMC4500_IO_Flat\Debug/../system/CMSIS/Infineon/XMC4500_series/Source/GCC/startup_XMC4500.asm:570
/* ======================================================================== */
     Insert_ExceptionHandler USIC2_3_IRQHandler
 800088a:	e7fe      	b.n	800088a <USIC2_3_IRQHandler>

0800088c <USIC2_3_IRQHandler_Veneer>:
USIC2_3_IRQHandler_Veneer():
 800088c:	4887      	ldr	r0, [pc, #540]	; (8000aac <AllowPLLInitByStartup+0x196>)
 800088e:	b500      	push	{lr}
 8000890:	b081      	sub	sp, #4
 8000892:	4780      	blx	r0
 8000894:	b001      	add	sp, #4
 8000896:	bd00      	pop	{pc}

08000898 <USIC2_4_IRQHandler>:
USIC2_4_IRQHandler():
D:\Software\workspace_2\XMC4500_IO_Flat\Debug/../system/CMSIS/Infineon/XMC4500_series/Source/GCC/startup_XMC4500.asm:572
/* ======================================================================== */
     Insert_ExceptionHandler USIC2_4_IRQHandler
 8000898:	e7fe      	b.n	8000898 <USIC2_4_IRQHandler>

0800089a <USIC2_4_IRQHandler_Veneer>:
USIC2_4_IRQHandler_Veneer():
 800089a:	4885      	ldr	r0, [pc, #532]	; (8000ab0 <AllowPLLInitByStartup+0x19a>)
 800089c:	b500      	push	{lr}
 800089e:	b081      	sub	sp, #4
 80008a0:	4780      	blx	r0
 80008a2:	b001      	add	sp, #4
 80008a4:	bd00      	pop	{pc}

080008a6 <USIC2_5_IRQHandler>:
USIC2_5_IRQHandler():
D:\Software\workspace_2\XMC4500_IO_Flat\Debug/../system/CMSIS/Infineon/XMC4500_series/Source/GCC/startup_XMC4500.asm:574
/* ======================================================================== */
     Insert_ExceptionHandler USIC2_5_IRQHandler
 80008a6:	e7fe      	b.n	80008a6 <USIC2_5_IRQHandler>

080008a8 <USIC2_5_IRQHandler_Veneer>:
USIC2_5_IRQHandler_Veneer():
 80008a8:	4882      	ldr	r0, [pc, #520]	; (8000ab4 <AllowPLLInitByStartup+0x19e>)
 80008aa:	b500      	push	{lr}
 80008ac:	b081      	sub	sp, #4
 80008ae:	4780      	blx	r0
 80008b0:	b001      	add	sp, #4
 80008b2:	bd00      	pop	{pc}

080008b4 <LEDTS0_0_IRQHandler>:
LEDTS0_0_IRQHandler():
D:\Software\workspace_2\XMC4500_IO_Flat\Debug/../system/CMSIS/Infineon/XMC4500_series/Source/GCC/startup_XMC4500.asm:576
/* ======================================================================== */
     Insert_ExceptionHandler LEDTS0_0_IRQHandler
 80008b4:	e7fe      	b.n	80008b4 <LEDTS0_0_IRQHandler>

080008b6 <LEDTS0_0_IRQHandler_Veneer>:
LEDTS0_0_IRQHandler_Veneer():
 80008b6:	4880      	ldr	r0, [pc, #512]	; (8000ab8 <AllowPLLInitByStartup+0x1a2>)
 80008b8:	b500      	push	{lr}
 80008ba:	b081      	sub	sp, #4
 80008bc:	4780      	blx	r0
 80008be:	b001      	add	sp, #4
 80008c0:	bd00      	pop	{pc}

080008c2 <FCE0_0_IRQHandler>:
FCE0_0_IRQHandler():
D:\Software\workspace_2\XMC4500_IO_Flat\Debug/../system/CMSIS/Infineon/XMC4500_series/Source/GCC/startup_XMC4500.asm:578
/* ======================================================================== */
     Insert_ExceptionHandler FCE0_0_IRQHandler
 80008c2:	e7fe      	b.n	80008c2 <FCE0_0_IRQHandler>

080008c4 <FCE0_0_IRQHandler_Veneer>:
FCE0_0_IRQHandler_Veneer():
 80008c4:	487d      	ldr	r0, [pc, #500]	; (8000abc <AllowPLLInitByStartup+0x1a6>)
 80008c6:	b500      	push	{lr}
 80008c8:	b081      	sub	sp, #4
 80008ca:	4780      	blx	r0
 80008cc:	b001      	add	sp, #4
 80008ce:	bd00      	pop	{pc}

080008d0 <GPDMA0_0_IRQHandler>:
GPDMA0_0_IRQHandler():
D:\Software\workspace_2\XMC4500_IO_Flat\Debug/../system/CMSIS/Infineon/XMC4500_series/Source/GCC/startup_XMC4500.asm:580
/* ======================================================================== */
     Insert_ExceptionHandler GPDMA0_0_IRQHandler
 80008d0:	e7fe      	b.n	80008d0 <GPDMA0_0_IRQHandler>

080008d2 <GPDMA0_0_IRQHandler_Veneer>:
GPDMA0_0_IRQHandler_Veneer():
 80008d2:	487b      	ldr	r0, [pc, #492]	; (8000ac0 <AllowPLLInitByStartup+0x1aa>)
 80008d4:	b500      	push	{lr}
 80008d6:	b081      	sub	sp, #4
 80008d8:	4780      	blx	r0
 80008da:	b001      	add	sp, #4
 80008dc:	bd00      	pop	{pc}

080008de <SDMMC0_0_IRQHandler>:
SDMMC0_0_IRQHandler():
D:\Software\workspace_2\XMC4500_IO_Flat\Debug/../system/CMSIS/Infineon/XMC4500_series/Source/GCC/startup_XMC4500.asm:582
/* ======================================================================== */
     Insert_ExceptionHandler SDMMC0_0_IRQHandler
 80008de:	e7fe      	b.n	80008de <SDMMC0_0_IRQHandler>

080008e0 <SDMMC0_0_IRQHandler_Veneer>:
SDMMC0_0_IRQHandler_Veneer():
 80008e0:	4878      	ldr	r0, [pc, #480]	; (8000ac4 <AllowPLLInitByStartup+0x1ae>)
 80008e2:	b500      	push	{lr}
 80008e4:	b081      	sub	sp, #4
 80008e6:	4780      	blx	r0
 80008e8:	b001      	add	sp, #4
 80008ea:	bd00      	pop	{pc}

080008ec <USB0_0_IRQHandler>:
USB0_0_IRQHandler():
D:\Software\workspace_2\XMC4500_IO_Flat\Debug/../system/CMSIS/Infineon/XMC4500_series/Source/GCC/startup_XMC4500.asm:584
/* ======================================================================== */
     Insert_ExceptionHandler USB0_0_IRQHandler
 80008ec:	e7fe      	b.n	80008ec <USB0_0_IRQHandler>

080008ee <USB0_0_IRQHandler_Veneer>:
USB0_0_IRQHandler_Veneer():
 80008ee:	4876      	ldr	r0, [pc, #472]	; (8000ac8 <AllowPLLInitByStartup+0x1b2>)
 80008f0:	b500      	push	{lr}
 80008f2:	b081      	sub	sp, #4
 80008f4:	4780      	blx	r0
 80008f6:	b001      	add	sp, #4
 80008f8:	bd00      	pop	{pc}

080008fa <ETH0_0_IRQHandler>:
ETH0_0_IRQHandler():
D:\Software\workspace_2\XMC4500_IO_Flat\Debug/../system/CMSIS/Infineon/XMC4500_series/Source/GCC/startup_XMC4500.asm:586
/* ======================================================================== */
     Insert_ExceptionHandler ETH0_0_IRQHandler
 80008fa:	e7fe      	b.n	80008fa <ETH0_0_IRQHandler>

080008fc <ETH0_0_IRQHandler_Veneer>:
ETH0_0_IRQHandler_Veneer():
 80008fc:	4873      	ldr	r0, [pc, #460]	; (8000acc <AllowPLLInitByStartup+0x1b6>)
 80008fe:	b500      	push	{lr}
 8000900:	b081      	sub	sp, #4
 8000902:	4780      	blx	r0
 8000904:	b001      	add	sp, #4
 8000906:	bd00      	pop	{pc}

08000908 <GPDMA1_0_IRQHandler>:
GPDMA1_0_IRQHandler():
D:\Software\workspace_2\XMC4500_IO_Flat\Debug/../system/CMSIS/Infineon/XMC4500_series/Source/GCC/startup_XMC4500.asm:588
/* ======================================================================== */
     Insert_ExceptionHandler GPDMA1_0_IRQHandler
 8000908:	e7fe      	b.n	8000908 <GPDMA1_0_IRQHandler>

0800090a <GPDMA1_0_IRQHandler_Veneer>:
GPDMA1_0_IRQHandler_Veneer():
 800090a:	4871      	ldr	r0, [pc, #452]	; (8000ad0 <AllowPLLInitByStartup+0x1ba>)
 800090c:	b500      	push	{lr}
 800090e:	b081      	sub	sp, #4
 8000910:	4780      	blx	r0
 8000912:	b001      	add	sp, #4
 8000914:	bd00      	pop	{pc}

08000916 <AllowPLLInitByStartup>:
AllowPLLInitByStartup():
D:\Software\workspace_2\XMC4500_IO_Flat\Debug/../system/CMSIS/Infineon/XMC4500_series/Source/GCC/startup_XMC4500.asm:606
   returns FALSE indicating that the code engine has performed the clock setup
*/   
    .weak   AllowPLLInitByStartup
    .type   AllowPLLInitByStartup, %function
AllowPLLInitByStartup:
    MOV R0,#1
 8000916:	f04f 0001 	mov.w	r0, #1
D:\Software\workspace_2\XMC4500_IO_Flat\Debug/../system/CMSIS/Infineon/XMC4500_series/Source/GCC/startup_XMC4500.asm:607
    BX LR
 800091a:	4770      	bx	lr
D:\Software\workspace_2\XMC4500_IO_Flat\Debug/../system/CMSIS/Infineon/XMC4500_series/Source/GCC/startup_XMC4500.asm:365
/* Default exception Handlers - Users may override this default functionality by
   defining handlers of the same name in their C code */
    .thumb
    .text

     Insert_ExceptionHandler NMI_Handler
 800091c:	080002a9 	.word	0x080002a9
D:\Software\workspace_2\XMC4500_IO_Flat\Debug/../system/CMSIS/Infineon/XMC4500_series/Source/GCC/startup_XMC4500.asm:367
/* ======================================================================== */
     Insert_ExceptionHandler HardFault_Handler
 8000920:	080002b9 	.word	0x080002b9
D:\Software\workspace_2\XMC4500_IO_Flat\Debug/../system/CMSIS/Infineon/XMC4500_series/Source/GCC/startup_XMC4500.asm:369
/* ======================================================================== */
     Insert_ExceptionHandler MemManage_Handler
 8000924:	080002c9 	.word	0x080002c9
D:\Software\workspace_2\XMC4500_IO_Flat\Debug/../system/CMSIS/Infineon/XMC4500_series/Source/GCC/startup_XMC4500.asm:371
/* ======================================================================== */
     Insert_ExceptionHandler BusFault_Handler
 8000928:	080002d9 	.word	0x080002d9
D:\Software\workspace_2\XMC4500_IO_Flat\Debug/../system/CMSIS/Infineon/XMC4500_series/Source/GCC/startup_XMC4500.asm:373
/* ======================================================================== */
     Insert_ExceptionHandler UsageFault_Handler
 800092c:	080002e9 	.word	0x080002e9
D:\Software\workspace_2\XMC4500_IO_Flat\Debug/../system/CMSIS/Infineon/XMC4500_series/Source/GCC/startup_XMC4500.asm:375
/* ======================================================================== */
     Insert_ExceptionHandler SVC_Handler
 8000930:	080002f9 	.word	0x080002f9
D:\Software\workspace_2\XMC4500_IO_Flat\Debug/../system/CMSIS/Infineon/XMC4500_series/Source/GCC/startup_XMC4500.asm:377
/* ======================================================================== */
     Insert_ExceptionHandler DebugMon_Handler
 8000934:	08000309 	.word	0x08000309
D:\Software\workspace_2\XMC4500_IO_Flat\Debug/../system/CMSIS/Infineon/XMC4500_series/Source/GCC/startup_XMC4500.asm:379
/* ======================================================================== */
     Insert_ExceptionHandler PendSV_Handler
 8000938:	08000319 	.word	0x08000319
D:\Software\workspace_2\XMC4500_IO_Flat\Debug/../system/CMSIS/Infineon/XMC4500_series/Source/GCC/startup_XMC4500.asm:381
/* ======================================================================== */
     Insert_ExceptionHandler SysTick_Handler
 800093c:	0800114d 	.word	0x0800114d
D:\Software\workspace_2\XMC4500_IO_Flat\Debug/../system/CMSIS/Infineon/XMC4500_series/Source/GCC/startup_XMC4500.asm:388
/* ============= END OF EXCEPTION HANDLER DEFINITION ======================== */

/* ============= START OF INTERRUPT HANDLER DEFINITION ====================== */

/* IRQ Handlers */
     Insert_ExceptionHandler SCU_0_IRQHandler
 8000940:	08000339 	.word	0x08000339
D:\Software\workspace_2\XMC4500_IO_Flat\Debug/../system/CMSIS/Infineon/XMC4500_series/Source/GCC/startup_XMC4500.asm:390
/* ======================================================================== */
     Insert_ExceptionHandler ERU0_0_IRQHandler
 8000944:	08000349 	.word	0x08000349
D:\Software\workspace_2\XMC4500_IO_Flat\Debug/../system/CMSIS/Infineon/XMC4500_series/Source/GCC/startup_XMC4500.asm:392
/* ======================================================================== */
     Insert_ExceptionHandler ERU0_1_IRQHandler
 8000948:	08000359 	.word	0x08000359
D:\Software\workspace_2\XMC4500_IO_Flat\Debug/../system/CMSIS/Infineon/XMC4500_series/Source/GCC/startup_XMC4500.asm:394
/* ======================================================================== */
     Insert_ExceptionHandler ERU0_2_IRQHandler
 800094c:	08000369 	.word	0x08000369
D:\Software\workspace_2\XMC4500_IO_Flat\Debug/../system/CMSIS/Infineon/XMC4500_series/Source/GCC/startup_XMC4500.asm:396
/* ======================================================================== */
     Insert_ExceptionHandler ERU0_3_IRQHandler
 8000950:	08000379 	.word	0x08000379
D:\Software\workspace_2\XMC4500_IO_Flat\Debug/../system/CMSIS/Infineon/XMC4500_series/Source/GCC/startup_XMC4500.asm:398
/* ======================================================================== */
     Insert_ExceptionHandler ERU1_0_IRQHandler
 8000954:	08000389 	.word	0x08000389
D:\Software\workspace_2\XMC4500_IO_Flat\Debug/../system/CMSIS/Infineon/XMC4500_series/Source/GCC/startup_XMC4500.asm:400
/* ======================================================================== */
     Insert_ExceptionHandler ERU1_1_IRQHandler
 8000958:	08000399 	.word	0x08000399
D:\Software\workspace_2\XMC4500_IO_Flat\Debug/../system/CMSIS/Infineon/XMC4500_series/Source/GCC/startup_XMC4500.asm:402
/* ======================================================================== */
     Insert_ExceptionHandler ERU1_2_IRQHandler
 800095c:	080003a9 	.word	0x080003a9
D:\Software\workspace_2\XMC4500_IO_Flat\Debug/../system/CMSIS/Infineon/XMC4500_series/Source/GCC/startup_XMC4500.asm:404
/* ======================================================================== */
     Insert_ExceptionHandler ERU1_3_IRQHandler
 8000960:	080003b9 	.word	0x080003b9
D:\Software\workspace_2\XMC4500_IO_Flat\Debug/../system/CMSIS/Infineon/XMC4500_series/Source/GCC/startup_XMC4500.asm:406
/* ======================================================================== */
     Insert_ExceptionHandler PMU0_0_IRQHandler
 8000964:	080003c9 	.word	0x080003c9
D:\Software\workspace_2\XMC4500_IO_Flat\Debug/../system/CMSIS/Infineon/XMC4500_series/Source/GCC/startup_XMC4500.asm:408
/* ======================================================================== */
     Insert_ExceptionHandler VADC0_C0_0_IRQHandler
 8000968:	080003d9 	.word	0x080003d9
D:\Software\workspace_2\XMC4500_IO_Flat\Debug/../system/CMSIS/Infineon/XMC4500_series/Source/GCC/startup_XMC4500.asm:410
/* ======================================================================== */
     Insert_ExceptionHandler VADC0_C0_1_IRQHandler
 800096c:	080003e9 	.word	0x080003e9
D:\Software\workspace_2\XMC4500_IO_Flat\Debug/../system/CMSIS/Infineon/XMC4500_series/Source/GCC/startup_XMC4500.asm:412
/* ======================================================================== */
     Insert_ExceptionHandler VADC0_C0_2_IRQHandler
 8000970:	080003f9 	.word	0x080003f9
D:\Software\workspace_2\XMC4500_IO_Flat\Debug/../system/CMSIS/Infineon/XMC4500_series/Source/GCC/startup_XMC4500.asm:414
/* ======================================================================== */
     Insert_ExceptionHandler VADC0_C0_3_IRQHandler
 8000974:	08000409 	.word	0x08000409
D:\Software\workspace_2\XMC4500_IO_Flat\Debug/../system/CMSIS/Infineon/XMC4500_series/Source/GCC/startup_XMC4500.asm:416
/* ======================================================================== */
     Insert_ExceptionHandler VADC0_G0_0_IRQHandler
 8000978:	08000419 	.word	0x08000419
D:\Software\workspace_2\XMC4500_IO_Flat\Debug/../system/CMSIS/Infineon/XMC4500_series/Source/GCC/startup_XMC4500.asm:418
/* ======================================================================== */
     Insert_ExceptionHandler VADC0_G0_1_IRQHandler
 800097c:	08000429 	.word	0x08000429
D:\Software\workspace_2\XMC4500_IO_Flat\Debug/../system/CMSIS/Infineon/XMC4500_series/Source/GCC/startup_XMC4500.asm:420
/* ======================================================================== */
     Insert_ExceptionHandler VADC0_G0_2_IRQHandler
 8000980:	08000439 	.word	0x08000439
D:\Software\workspace_2\XMC4500_IO_Flat\Debug/../system/CMSIS/Infineon/XMC4500_series/Source/GCC/startup_XMC4500.asm:422
/* ======================================================================== */
     Insert_ExceptionHandler VADC0_G0_3_IRQHandler
 8000984:	08000449 	.word	0x08000449
D:\Software\workspace_2\XMC4500_IO_Flat\Debug/../system/CMSIS/Infineon/XMC4500_series/Source/GCC/startup_XMC4500.asm:424
/* ======================================================================== */
     Insert_ExceptionHandler VADC0_G1_0_IRQHandler
 8000988:	08000459 	.word	0x08000459
D:\Software\workspace_2\XMC4500_IO_Flat\Debug/../system/CMSIS/Infineon/XMC4500_series/Source/GCC/startup_XMC4500.asm:426
/* ======================================================================== */
     Insert_ExceptionHandler VADC0_G1_1_IRQHandler
 800098c:	08000469 	.word	0x08000469
D:\Software\workspace_2\XMC4500_IO_Flat\Debug/../system/CMSIS/Infineon/XMC4500_series/Source/GCC/startup_XMC4500.asm:428
/* ======================================================================== */
     Insert_ExceptionHandler VADC0_G1_2_IRQHandler
 8000990:	08000479 	.word	0x08000479
D:\Software\workspace_2\XMC4500_IO_Flat\Debug/../system/CMSIS/Infineon/XMC4500_series/Source/GCC/startup_XMC4500.asm:430
/* ======================================================================== */
     Insert_ExceptionHandler VADC0_G1_3_IRQHandler
 8000994:	08000489 	.word	0x08000489
D:\Software\workspace_2\XMC4500_IO_Flat\Debug/../system/CMSIS/Infineon/XMC4500_series/Source/GCC/startup_XMC4500.asm:432
/* ======================================================================== */
     Insert_ExceptionHandler VADC0_G2_0_IRQHandler
 8000998:	08000499 	.word	0x08000499
D:\Software\workspace_2\XMC4500_IO_Flat\Debug/../system/CMSIS/Infineon/XMC4500_series/Source/GCC/startup_XMC4500.asm:434
/* ======================================================================== */
     Insert_ExceptionHandler VADC0_G2_1_IRQHandler
 800099c:	080004a9 	.word	0x080004a9
D:\Software\workspace_2\XMC4500_IO_Flat\Debug/../system/CMSIS/Infineon/XMC4500_series/Source/GCC/startup_XMC4500.asm:436
/* ======================================================================== */
     Insert_ExceptionHandler VADC0_G2_2_IRQHandler
 80009a0:	080004b9 	.word	0x080004b9
D:\Software\workspace_2\XMC4500_IO_Flat\Debug/../system/CMSIS/Infineon/XMC4500_series/Source/GCC/startup_XMC4500.asm:438
/* ======================================================================== */
     Insert_ExceptionHandler VADC0_G2_3_IRQHandler
 80009a4:	080004c9 	.word	0x080004c9
D:\Software\workspace_2\XMC4500_IO_Flat\Debug/../system/CMSIS/Infineon/XMC4500_series/Source/GCC/startup_XMC4500.asm:440
/* ======================================================================== */
     Insert_ExceptionHandler VADC0_G3_0_IRQHandler
 80009a8:	080004d9 	.word	0x080004d9
D:\Software\workspace_2\XMC4500_IO_Flat\Debug/../system/CMSIS/Infineon/XMC4500_series/Source/GCC/startup_XMC4500.asm:442
/* ======================================================================== */
     Insert_ExceptionHandler VADC0_G3_1_IRQHandler
 80009ac:	080004e9 	.word	0x080004e9
D:\Software\workspace_2\XMC4500_IO_Flat\Debug/../system/CMSIS/Infineon/XMC4500_series/Source/GCC/startup_XMC4500.asm:444
/* ======================================================================== */
     Insert_ExceptionHandler VADC0_G3_2_IRQHandler
 80009b0:	080004f9 	.word	0x080004f9
D:\Software\workspace_2\XMC4500_IO_Flat\Debug/../system/CMSIS/Infineon/XMC4500_series/Source/GCC/startup_XMC4500.asm:446
/* ======================================================================== */
     Insert_ExceptionHandler VADC0_G3_3_IRQHandler
 80009b4:	08000509 	.word	0x08000509
D:\Software\workspace_2\XMC4500_IO_Flat\Debug/../system/CMSIS/Infineon/XMC4500_series/Source/GCC/startup_XMC4500.asm:448
/* ======================================================================== */
     Insert_ExceptionHandler DSD0_0_IRQHandler
 80009b8:	08000519 	.word	0x08000519
D:\Software\workspace_2\XMC4500_IO_Flat\Debug/../system/CMSIS/Infineon/XMC4500_series/Source/GCC/startup_XMC4500.asm:450
/* ======================================================================== */
     Insert_ExceptionHandler DSD0_1_IRQHandler
 80009bc:	08000529 	.word	0x08000529
D:\Software\workspace_2\XMC4500_IO_Flat\Debug/../system/CMSIS/Infineon/XMC4500_series/Source/GCC/startup_XMC4500.asm:452
/* ======================================================================== */
     Insert_ExceptionHandler DSD0_2_IRQHandler
 80009c0:	08000539 	.word	0x08000539
D:\Software\workspace_2\XMC4500_IO_Flat\Debug/../system/CMSIS/Infineon/XMC4500_series/Source/GCC/startup_XMC4500.asm:454
/* ======================================================================== */
     Insert_ExceptionHandler DSD0_3_IRQHandler
 80009c4:	08000549 	.word	0x08000549
D:\Software\workspace_2\XMC4500_IO_Flat\Debug/../system/CMSIS/Infineon/XMC4500_series/Source/GCC/startup_XMC4500.asm:456
/* ======================================================================== */
     Insert_ExceptionHandler DSD0_4_IRQHandler
 80009c8:	08000559 	.word	0x08000559
D:\Software\workspace_2\XMC4500_IO_Flat\Debug/../system/CMSIS/Infineon/XMC4500_series/Source/GCC/startup_XMC4500.asm:458
/* ======================================================================== */
     Insert_ExceptionHandler DSD0_5_IRQHandler
 80009cc:	08000569 	.word	0x08000569
D:\Software\workspace_2\XMC4500_IO_Flat\Debug/../system/CMSIS/Infineon/XMC4500_series/Source/GCC/startup_XMC4500.asm:460
/* ======================================================================== */
     Insert_ExceptionHandler DSD0_6_IRQHandler
 80009d0:	08000579 	.word	0x08000579
D:\Software\workspace_2\XMC4500_IO_Flat\Debug/../system/CMSIS/Infineon/XMC4500_series/Source/GCC/startup_XMC4500.asm:462
/* ======================================================================== */
     Insert_ExceptionHandler DSD0_7_IRQHandler
 80009d4:	08000589 	.word	0x08000589
D:\Software\workspace_2\XMC4500_IO_Flat\Debug/../system/CMSIS/Infineon/XMC4500_series/Source/GCC/startup_XMC4500.asm:464
/* ======================================================================== */
     Insert_ExceptionHandler DAC0_0_IRQHandler
 80009d8:	08000599 	.word	0x08000599
D:\Software\workspace_2\XMC4500_IO_Flat\Debug/../system/CMSIS/Infineon/XMC4500_series/Source/GCC/startup_XMC4500.asm:466
/* ======================================================================== */
     Insert_ExceptionHandler DAC0_1_IRQHandler
 80009dc:	080005a9 	.word	0x080005a9
D:\Software\workspace_2\XMC4500_IO_Flat\Debug/../system/CMSIS/Infineon/XMC4500_series/Source/GCC/startup_XMC4500.asm:468
/* ======================================================================== */
     Insert_ExceptionHandler CCU40_0_IRQHandler
 80009e0:	080005b9 	.word	0x080005b9
D:\Software\workspace_2\XMC4500_IO_Flat\Debug/../system/CMSIS/Infineon/XMC4500_series/Source/GCC/startup_XMC4500.asm:470
/* ======================================================================== */
     Insert_ExceptionHandler CCU40_1_IRQHandler
 80009e4:	080005c9 	.word	0x080005c9
D:\Software\workspace_2\XMC4500_IO_Flat\Debug/../system/CMSIS/Infineon/XMC4500_series/Source/GCC/startup_XMC4500.asm:472
/* ======================================================================== */
     Insert_ExceptionHandler CCU40_2_IRQHandler
 80009e8:	080005d9 	.word	0x080005d9
D:\Software\workspace_2\XMC4500_IO_Flat\Debug/../system/CMSIS/Infineon/XMC4500_series/Source/GCC/startup_XMC4500.asm:474
/* ======================================================================== */
     Insert_ExceptionHandler CCU40_3_IRQHandler
 80009ec:	080005e9 	.word	0x080005e9
D:\Software\workspace_2\XMC4500_IO_Flat\Debug/../system/CMSIS/Infineon/XMC4500_series/Source/GCC/startup_XMC4500.asm:476
/* ======================================================================== */
     Insert_ExceptionHandler CCU41_0_IRQHandler
 80009f0:	080005f9 	.word	0x080005f9
D:\Software\workspace_2\XMC4500_IO_Flat\Debug/../system/CMSIS/Infineon/XMC4500_series/Source/GCC/startup_XMC4500.asm:478
/* ======================================================================== */
     Insert_ExceptionHandler CCU41_1_IRQHandler
 80009f4:	08000607 	.word	0x08000607
D:\Software\workspace_2\XMC4500_IO_Flat\Debug/../system/CMSIS/Infineon/XMC4500_series/Source/GCC/startup_XMC4500.asm:480
/* ======================================================================== */
     Insert_ExceptionHandler CCU41_2_IRQHandler
 80009f8:	08000615 	.word	0x08000615
D:\Software\workspace_2\XMC4500_IO_Flat\Debug/../system/CMSIS/Infineon/XMC4500_series/Source/GCC/startup_XMC4500.asm:482
/* ======================================================================== */
     Insert_ExceptionHandler CCU41_3_IRQHandler
 80009fc:	08000623 	.word	0x08000623
D:\Software\workspace_2\XMC4500_IO_Flat\Debug/../system/CMSIS/Infineon/XMC4500_series/Source/GCC/startup_XMC4500.asm:484
/* ======================================================================== */
     Insert_ExceptionHandler CCU42_0_IRQHandler
 8000a00:	08000631 	.word	0x08000631
D:\Software\workspace_2\XMC4500_IO_Flat\Debug/../system/CMSIS/Infineon/XMC4500_series/Source/GCC/startup_XMC4500.asm:486
/* ======================================================================== */
     Insert_ExceptionHandler CCU42_1_IRQHandler
 8000a04:	0800063f 	.word	0x0800063f
D:\Software\workspace_2\XMC4500_IO_Flat\Debug/../system/CMSIS/Infineon/XMC4500_series/Source/GCC/startup_XMC4500.asm:488
/* ======================================================================== */
     Insert_ExceptionHandler CCU42_2_IRQHandler
 8000a08:	0800064d 	.word	0x0800064d
D:\Software\workspace_2\XMC4500_IO_Flat\Debug/../system/CMSIS/Infineon/XMC4500_series/Source/GCC/startup_XMC4500.asm:490
/* ======================================================================== */
     Insert_ExceptionHandler CCU42_3_IRQHandler
 8000a0c:	0800065b 	.word	0x0800065b
D:\Software\workspace_2\XMC4500_IO_Flat\Debug/../system/CMSIS/Infineon/XMC4500_series/Source/GCC/startup_XMC4500.asm:492
/* ======================================================================== */
     Insert_ExceptionHandler CCU43_0_IRQHandler
 8000a10:	08000669 	.word	0x08000669
D:\Software\workspace_2\XMC4500_IO_Flat\Debug/../system/CMSIS/Infineon/XMC4500_series/Source/GCC/startup_XMC4500.asm:494
/* ======================================================================== */
     Insert_ExceptionHandler CCU43_1_IRQHandler
 8000a14:	08000677 	.word	0x08000677
D:\Software\workspace_2\XMC4500_IO_Flat\Debug/../system/CMSIS/Infineon/XMC4500_series/Source/GCC/startup_XMC4500.asm:496
/* ======================================================================== */
     Insert_ExceptionHandler CCU43_2_IRQHandler
 8000a18:	08000685 	.word	0x08000685
D:\Software\workspace_2\XMC4500_IO_Flat\Debug/../system/CMSIS/Infineon/XMC4500_series/Source/GCC/startup_XMC4500.asm:498
/* ======================================================================== */
     Insert_ExceptionHandler CCU43_3_IRQHandler
 8000a1c:	08000693 	.word	0x08000693
D:\Software\workspace_2\XMC4500_IO_Flat\Debug/../system/CMSIS/Infineon/XMC4500_series/Source/GCC/startup_XMC4500.asm:500
/* ======================================================================== */
     Insert_ExceptionHandler CCU80_0_IRQHandler
 8000a20:	080006a1 	.word	0x080006a1
D:\Software\workspace_2\XMC4500_IO_Flat\Debug/../system/CMSIS/Infineon/XMC4500_series/Source/GCC/startup_XMC4500.asm:502
/* ======================================================================== */
     Insert_ExceptionHandler CCU80_1_IRQHandler
 8000a24:	080006af 	.word	0x080006af
D:\Software\workspace_2\XMC4500_IO_Flat\Debug/../system/CMSIS/Infineon/XMC4500_series/Source/GCC/startup_XMC4500.asm:504
/* ======================================================================== */
     Insert_ExceptionHandler CCU80_2_IRQHandler
 8000a28:	080006bd 	.word	0x080006bd
D:\Software\workspace_2\XMC4500_IO_Flat\Debug/../system/CMSIS/Infineon/XMC4500_series/Source/GCC/startup_XMC4500.asm:506
/* ======================================================================== */
     Insert_ExceptionHandler CCU80_3_IRQHandler
 8000a2c:	080006cb 	.word	0x080006cb
D:\Software\workspace_2\XMC4500_IO_Flat\Debug/../system/CMSIS/Infineon/XMC4500_series/Source/GCC/startup_XMC4500.asm:508
/* ======================================================================== */
     Insert_ExceptionHandler CCU81_0_IRQHandler
 8000a30:	080006d9 	.word	0x080006d9
D:\Software\workspace_2\XMC4500_IO_Flat\Debug/../system/CMSIS/Infineon/XMC4500_series/Source/GCC/startup_XMC4500.asm:510
/* ======================================================================== */
     Insert_ExceptionHandler CCU81_1_IRQHandler
 8000a34:	080006e7 	.word	0x080006e7
D:\Software\workspace_2\XMC4500_IO_Flat\Debug/../system/CMSIS/Infineon/XMC4500_series/Source/GCC/startup_XMC4500.asm:512
/* ======================================================================== */
     Insert_ExceptionHandler CCU81_2_IRQHandler
 8000a38:	080006f5 	.word	0x080006f5
D:\Software\workspace_2\XMC4500_IO_Flat\Debug/../system/CMSIS/Infineon/XMC4500_series/Source/GCC/startup_XMC4500.asm:514
/* ======================================================================== */
     Insert_ExceptionHandler CCU81_3_IRQHandler
 8000a3c:	08000703 	.word	0x08000703
D:\Software\workspace_2\XMC4500_IO_Flat\Debug/../system/CMSIS/Infineon/XMC4500_series/Source/GCC/startup_XMC4500.asm:516
/* ======================================================================== */
     Insert_ExceptionHandler POSIF0_0_IRQHandler
 8000a40:	08000711 	.word	0x08000711
D:\Software\workspace_2\XMC4500_IO_Flat\Debug/../system/CMSIS/Infineon/XMC4500_series/Source/GCC/startup_XMC4500.asm:518
/* ======================================================================== */
     Insert_ExceptionHandler POSIF0_1_IRQHandler
 8000a44:	0800071f 	.word	0x0800071f
D:\Software\workspace_2\XMC4500_IO_Flat\Debug/../system/CMSIS/Infineon/XMC4500_series/Source/GCC/startup_XMC4500.asm:520
/* ======================================================================== */
     Insert_ExceptionHandler POSIF1_0_IRQHandler
 8000a48:	0800072d 	.word	0x0800072d
D:\Software\workspace_2\XMC4500_IO_Flat\Debug/../system/CMSIS/Infineon/XMC4500_series/Source/GCC/startup_XMC4500.asm:522
/* ======================================================================== */
     Insert_ExceptionHandler POSIF1_1_IRQHandler
 8000a4c:	0800073b 	.word	0x0800073b
D:\Software\workspace_2\XMC4500_IO_Flat\Debug/../system/CMSIS/Infineon/XMC4500_series/Source/GCC/startup_XMC4500.asm:524
/* ======================================================================== */
     Insert_ExceptionHandler CAN0_0_IRQHandler
 8000a50:	08000749 	.word	0x08000749
D:\Software\workspace_2\XMC4500_IO_Flat\Debug/../system/CMSIS/Infineon/XMC4500_series/Source/GCC/startup_XMC4500.asm:526
/* ======================================================================== */
     Insert_ExceptionHandler CAN0_1_IRQHandler
 8000a54:	08000757 	.word	0x08000757
D:\Software\workspace_2\XMC4500_IO_Flat\Debug/../system/CMSIS/Infineon/XMC4500_series/Source/GCC/startup_XMC4500.asm:528
/* ======================================================================== */
     Insert_ExceptionHandler CAN0_2_IRQHandler
 8000a58:	08000765 	.word	0x08000765
D:\Software\workspace_2\XMC4500_IO_Flat\Debug/../system/CMSIS/Infineon/XMC4500_series/Source/GCC/startup_XMC4500.asm:530
/* ======================================================================== */
     Insert_ExceptionHandler CAN0_3_IRQHandler
 8000a5c:	08000773 	.word	0x08000773
D:\Software\workspace_2\XMC4500_IO_Flat\Debug/../system/CMSIS/Infineon/XMC4500_series/Source/GCC/startup_XMC4500.asm:532
/* ======================================================================== */
     Insert_ExceptionHandler CAN0_4_IRQHandler
 8000a60:	08000781 	.word	0x08000781
D:\Software\workspace_2\XMC4500_IO_Flat\Debug/../system/CMSIS/Infineon/XMC4500_series/Source/GCC/startup_XMC4500.asm:534
/* ======================================================================== */
     Insert_ExceptionHandler CAN0_5_IRQHandler
 8000a64:	0800078f 	.word	0x0800078f
D:\Software\workspace_2\XMC4500_IO_Flat\Debug/../system/CMSIS/Infineon/XMC4500_series/Source/GCC/startup_XMC4500.asm:536
/* ======================================================================== */
     Insert_ExceptionHandler CAN0_6_IRQHandler
 8000a68:	0800079d 	.word	0x0800079d
D:\Software\workspace_2\XMC4500_IO_Flat\Debug/../system/CMSIS/Infineon/XMC4500_series/Source/GCC/startup_XMC4500.asm:538
/* ======================================================================== */
     Insert_ExceptionHandler CAN0_7_IRQHandler
 8000a6c:	080007ab 	.word	0x080007ab
D:\Software\workspace_2\XMC4500_IO_Flat\Debug/../system/CMSIS/Infineon/XMC4500_series/Source/GCC/startup_XMC4500.asm:540
/* ======================================================================== */
     Insert_ExceptionHandler USIC0_0_IRQHandler
 8000a70:	080007b9 	.word	0x080007b9
D:\Software\workspace_2\XMC4500_IO_Flat\Debug/../system/CMSIS/Infineon/XMC4500_series/Source/GCC/startup_XMC4500.asm:542
/* ======================================================================== */
     Insert_ExceptionHandler USIC0_1_IRQHandler
 8000a74:	080007c7 	.word	0x080007c7
D:\Software\workspace_2\XMC4500_IO_Flat\Debug/../system/CMSIS/Infineon/XMC4500_series/Source/GCC/startup_XMC4500.asm:544
/* ======================================================================== */
     Insert_ExceptionHandler USIC0_2_IRQHandler
 8000a78:	080007d5 	.word	0x080007d5
D:\Software\workspace_2\XMC4500_IO_Flat\Debug/../system/CMSIS/Infineon/XMC4500_series/Source/GCC/startup_XMC4500.asm:546
/* ======================================================================== */
     Insert_ExceptionHandler USIC0_3_IRQHandler
 8000a7c:	080007e3 	.word	0x080007e3
D:\Software\workspace_2\XMC4500_IO_Flat\Debug/../system/CMSIS/Infineon/XMC4500_series/Source/GCC/startup_XMC4500.asm:548
/* ======================================================================== */
     Insert_ExceptionHandler USIC0_4_IRQHandler
 8000a80:	080007f1 	.word	0x080007f1
D:\Software\workspace_2\XMC4500_IO_Flat\Debug/../system/CMSIS/Infineon/XMC4500_series/Source/GCC/startup_XMC4500.asm:550
/* ======================================================================== */
     Insert_ExceptionHandler USIC0_5_IRQHandler
 8000a84:	080007ff 	.word	0x080007ff
D:\Software\workspace_2\XMC4500_IO_Flat\Debug/../system/CMSIS/Infineon/XMC4500_series/Source/GCC/startup_XMC4500.asm:552
/* ======================================================================== */
     Insert_ExceptionHandler USIC1_0_IRQHandler
 8000a88:	0800080d 	.word	0x0800080d
D:\Software\workspace_2\XMC4500_IO_Flat\Debug/../system/CMSIS/Infineon/XMC4500_series/Source/GCC/startup_XMC4500.asm:554
/* ======================================================================== */
     Insert_ExceptionHandler USIC1_1_IRQHandler
 8000a8c:	0800081b 	.word	0x0800081b
D:\Software\workspace_2\XMC4500_IO_Flat\Debug/../system/CMSIS/Infineon/XMC4500_series/Source/GCC/startup_XMC4500.asm:556
/* ======================================================================== */
     Insert_ExceptionHandler USIC1_2_IRQHandler
 8000a90:	08000829 	.word	0x08000829
D:\Software\workspace_2\XMC4500_IO_Flat\Debug/../system/CMSIS/Infineon/XMC4500_series/Source/GCC/startup_XMC4500.asm:558
/* ======================================================================== */
     Insert_ExceptionHandler USIC1_3_IRQHandler
 8000a94:	08000837 	.word	0x08000837
D:\Software\workspace_2\XMC4500_IO_Flat\Debug/../system/CMSIS/Infineon/XMC4500_series/Source/GCC/startup_XMC4500.asm:560
/* ======================================================================== */
     Insert_ExceptionHandler USIC1_4_IRQHandler
 8000a98:	08000845 	.word	0x08000845
D:\Software\workspace_2\XMC4500_IO_Flat\Debug/../system/CMSIS/Infineon/XMC4500_series/Source/GCC/startup_XMC4500.asm:562
/* ======================================================================== */
     Insert_ExceptionHandler USIC1_5_IRQHandler
 8000a9c:	08000853 	.word	0x08000853
D:\Software\workspace_2\XMC4500_IO_Flat\Debug/../system/CMSIS/Infineon/XMC4500_series/Source/GCC/startup_XMC4500.asm:564
/* ======================================================================== */
     Insert_ExceptionHandler USIC2_0_IRQHandler
 8000aa0:	08000861 	.word	0x08000861
D:\Software\workspace_2\XMC4500_IO_Flat\Debug/../system/CMSIS/Infineon/XMC4500_series/Source/GCC/startup_XMC4500.asm:566
/* ======================================================================== */
     Insert_ExceptionHandler USIC2_1_IRQHandler
 8000aa4:	0800086f 	.word	0x0800086f
D:\Software\workspace_2\XMC4500_IO_Flat\Debug/../system/CMSIS/Infineon/XMC4500_series/Source/GCC/startup_XMC4500.asm:568
/* ======================================================================== */
     Insert_ExceptionHandler USIC2_2_IRQHandler
 8000aa8:	0800087d 	.word	0x0800087d
D:\Software\workspace_2\XMC4500_IO_Flat\Debug/../system/CMSIS/Infineon/XMC4500_series/Source/GCC/startup_XMC4500.asm:570
/* ======================================================================== */
     Insert_ExceptionHandler USIC2_3_IRQHandler
 8000aac:	0800088b 	.word	0x0800088b
D:\Software\workspace_2\XMC4500_IO_Flat\Debug/../system/CMSIS/Infineon/XMC4500_series/Source/GCC/startup_XMC4500.asm:572
/* ======================================================================== */
     Insert_ExceptionHandler USIC2_4_IRQHandler
 8000ab0:	08000899 	.word	0x08000899
D:\Software\workspace_2\XMC4500_IO_Flat\Debug/../system/CMSIS/Infineon/XMC4500_series/Source/GCC/startup_XMC4500.asm:574
/* ======================================================================== */
     Insert_ExceptionHandler USIC2_5_IRQHandler
 8000ab4:	080008a7 	.word	0x080008a7
D:\Software\workspace_2\XMC4500_IO_Flat\Debug/../system/CMSIS/Infineon/XMC4500_series/Source/GCC/startup_XMC4500.asm:576
/* ======================================================================== */
     Insert_ExceptionHandler LEDTS0_0_IRQHandler
 8000ab8:	080008b5 	.word	0x080008b5
D:\Software\workspace_2\XMC4500_IO_Flat\Debug/../system/CMSIS/Infineon/XMC4500_series/Source/GCC/startup_XMC4500.asm:578
/* ======================================================================== */
     Insert_ExceptionHandler FCE0_0_IRQHandler
 8000abc:	080008c3 	.word	0x080008c3
D:\Software\workspace_2\XMC4500_IO_Flat\Debug/../system/CMSIS/Infineon/XMC4500_series/Source/GCC/startup_XMC4500.asm:580
/* ======================================================================== */
     Insert_ExceptionHandler GPDMA0_0_IRQHandler
 8000ac0:	080008d1 	.word	0x080008d1
D:\Software\workspace_2\XMC4500_IO_Flat\Debug/../system/CMSIS/Infineon/XMC4500_series/Source/GCC/startup_XMC4500.asm:582
/* ======================================================================== */
     Insert_ExceptionHandler SDMMC0_0_IRQHandler
 8000ac4:	080008df 	.word	0x080008df
D:\Software\workspace_2\XMC4500_IO_Flat\Debug/../system/CMSIS/Infineon/XMC4500_series/Source/GCC/startup_XMC4500.asm:584
/* ======================================================================== */
     Insert_ExceptionHandler USB0_0_IRQHandler
 8000ac8:	080008ed 	.word	0x080008ed
D:\Software\workspace_2\XMC4500_IO_Flat\Debug/../system/CMSIS/Infineon/XMC4500_series/Source/GCC/startup_XMC4500.asm:586
/* ======================================================================== */
     Insert_ExceptionHandler ETH0_0_IRQHandler
 8000acc:	080008fb 	.word	0x080008fb
D:\Software\workspace_2\XMC4500_IO_Flat\Debug/../system/CMSIS/Infineon/XMC4500_series/Source/GCC/startup_XMC4500.asm:588
/* ======================================================================== */
     Insert_ExceptionHandler GPDMA1_0_IRQHandler
 8000ad0:	08000909 	.word	0x08000909

08000ad4 <SystemInit>:
SystemInit():
D:\Software\workspace_2\XMC4500_IO_Flat\Debug/../system/CMSIS/Infineon/XMC4500_series/Source/System_XMC4500.c:217
  *         SystemCoreClock variable.
  * @param  None
  * @retval None
  */
void SystemInit(void)
{
 8000ad4:	b580      	push	{r7, lr}
 8000ad6:	b082      	sub	sp, #8
 8000ad8:	af00      	add	r7, sp, #0
D:\Software\workspace_2\XMC4500_IO_Flat\Debug/../system/CMSIS/Infineon/XMC4500_series/Source/System_XMC4500.c:226
SCB->CPACR |= ((3UL << 10*2) |                 /* set CP10 Full Access */
               (3UL << 11*2)  );               /* set CP11 Full Access */
#endif

/* Enable unaligned memory access - SCB_CCR.UNALIGN_TRP = 0 */
SCB->CCR &= ~(SCB_CCR_UNALIGN_TRP_Msk);
 8000ada:	4a14      	ldr	r2, [pc, #80]	; (8000b2c <SystemInit+0x58>)
 8000adc:	4b13      	ldr	r3, [pc, #76]	; (8000b2c <SystemInit+0x58>)
 8000ade:	695b      	ldr	r3, [r3, #20]
 8000ae0:	f023 0308 	bic.w	r3, r3, #8
 8000ae4:	6153      	str	r3, [r2, #20]
D:\Software\workspace_2\XMC4500_IO_Flat\Debug/../system/CMSIS/Infineon/XMC4500_series/Source/System_XMC4500.c:231
	
/* Setup the WDT */
#if WDT_SETUP

WDT->CTR &= ~WDTENB_nVal; 
 8000ae6:	4a12      	ldr	r2, [pc, #72]	; (8000b30 <SystemInit+0x5c>)
 8000ae8:	4b11      	ldr	r3, [pc, #68]	; (8000b30 <SystemInit+0x5c>)
 8000aea:	685b      	ldr	r3, [r3, #4]
 8000aec:	f023 0301 	bic.w	r3, r3, #1
 8000af0:	6053      	str	r3, [r2, #4]
D:\Software\workspace_2\XMC4500_IO_Flat\Debug/../system/CMSIS/Infineon/XMC4500_series/Source/System_XMC4500.c:237

#endif

/* Setup the Flash Wait State */
#if PMU_FLASH
temp = FLASH0->FCON; 
 8000af2:	4b10      	ldr	r3, [pc, #64]	; (8000b34 <SystemInit+0x60>)
 8000af4:	f503 5380 	add.w	r3, r3, #4096	; 0x1000
 8000af8:	3314      	adds	r3, #20
 8000afa:	681b      	ldr	r3, [r3, #0]
 8000afc:	607b      	str	r3, [r7, #4]
D:\Software\workspace_2\XMC4500_IO_Flat\Debug/../system/CMSIS/Infineon/XMC4500_series/Source/System_XMC4500.c:238
temp &= ~FLASH_FCON_WSPFLASH_Msk;
 8000afe:	687b      	ldr	r3, [r7, #4]
 8000b00:	f023 030f 	bic.w	r3, r3, #15
 8000b04:	607b      	str	r3, [r7, #4]
D:\Software\workspace_2\XMC4500_IO_Flat\Debug/../system/CMSIS/Infineon/XMC4500_series/Source/System_XMC4500.c:239
temp |= PMU_FLASH_WS+3;
 8000b06:	687b      	ldr	r3, [r7, #4]
 8000b08:	f043 0303 	orr.w	r3, r3, #3
 8000b0c:	607b      	str	r3, [r7, #4]
D:\Software\workspace_2\XMC4500_IO_Flat\Debug/../system/CMSIS/Infineon/XMC4500_series/Source/System_XMC4500.c:240
FLASH0->FCON = temp;
 8000b0e:	4b09      	ldr	r3, [pc, #36]	; (8000b34 <SystemInit+0x60>)
 8000b10:	687a      	ldr	r2, [r7, #4]
 8000b12:	f503 5380 	add.w	r3, r3, #4096	; 0x1000
 8000b16:	3314      	adds	r3, #20
 8000b18:	601a      	str	r2, [r3, #0]
D:\Software\workspace_2\XMC4500_IO_Flat\Debug/../system/CMSIS/Infineon/XMC4500_series/Source/System_XMC4500.c:266
#endif


/* Setup the System clock */ 
#if SCU_CLOCK_SETUP
SystemClockSetup();
 8000b1a:	f000 f87b 	bl	8000c14 <SystemClockSetup>
D:\Software\workspace_2\XMC4500_IO_Flat\Debug/../system/CMSIS/Infineon/XMC4500_series/Source/System_XMC4500.c:272
#endif

/*----------------------------------------------------------------------------
  Clock Variable definitions
 *----------------------------------------------------------------------------*/
SystemCoreClockUpdate();/*!< System Clock Frequency (Core Clock)*/
 8000b1e:	f000 f80b 	bl	8000b38 <SystemCoreClockUpdate>
D:\Software\workspace_2\XMC4500_IO_Flat\Debug/../system/CMSIS/Infineon/XMC4500_series/Source/System_XMC4500.c:282
USBClockSetup();
#endif



}
 8000b22:	bf00      	nop
 8000b24:	3708      	adds	r7, #8
 8000b26:	46bd      	mov	sp, r7
 8000b28:	bd80      	pop	{r7, pc}
 8000b2a:	bf00      	nop
 8000b2c:	e000ed00 	.word	0xe000ed00
 8000b30:	50008000 	.word	0x50008000
 8000b34:	58001000 	.word	0x58001000

08000b38 <SystemCoreClockUpdate>:
SystemCoreClockUpdate():
D:\Software\workspace_2\XMC4500_IO_Flat\Debug/../system/CMSIS/Infineon/XMC4500_series/Source/System_XMC4500.c:292
  * @note   -  
  * @param  None
  * @retval None
  */
void SystemCoreClockUpdate(void)
{
 8000b38:	b480      	push	{r7}
 8000b3a:	b085      	sub	sp, #20
 8000b3c:	af00      	add	r7, sp, #0
D:\Software\workspace_2\XMC4500_IO_Flat\Debug/../system/CMSIS/Infineon/XMC4500_series/Source/System_XMC4500.c:302


/*----------------------------------------------------------------------------
  Clock Variable definitions
 *----------------------------------------------------------------------------*/
if (SCU_CLK->SYSCLKCR ==  0x00010000)
 8000b3e:	4b30      	ldr	r3, [pc, #192]	; (8000c00 <SystemCoreClockUpdate+0xc8>)
 8000b40:	68db      	ldr	r3, [r3, #12]
 8000b42:	f5b3 3f80 	cmp.w	r3, #65536	; 0x10000
 8000b46:	d152      	bne.n	8000bee <SystemCoreClockUpdate+0xb6>
D:\Software\workspace_2\XMC4500_IO_Flat\Debug/../system/CMSIS/Infineon/XMC4500_series/Source/System_XMC4500.c:304
{
	if (SCU_PLL->PLLSTAT & SCU_PLL_PLLSTAT_VCOLOCK_Msk){
 8000b48:	4b2e      	ldr	r3, [pc, #184]	; (8000c04 <SystemCoreClockUpdate+0xcc>)
 8000b4a:	681b      	ldr	r3, [r3, #0]
 8000b4c:	f003 0304 	and.w	r3, r3, #4
 8000b50:	2b00      	cmp	r3, #0
 8000b52:	d04f      	beq.n	8000bf4 <SystemCoreClockUpdate+0xbc>
D:\Software\workspace_2\XMC4500_IO_Flat\Debug/../system/CMSIS/Infineon/XMC4500_series/Source/System_XMC4500.c:307
		/* check if PLL is locked */
		/* read back divider settings */
		 PDIV = ((SCU_PLL->PLLCON1 & SCU_PLL_PLLCON1_PDIV_Msk)>>24)+1;
 8000b54:	4b2b      	ldr	r3, [pc, #172]	; (8000c04 <SystemCoreClockUpdate+0xcc>)
 8000b56:	689b      	ldr	r3, [r3, #8]
 8000b58:	f003 6370 	and.w	r3, r3, #251658240	; 0xf000000
 8000b5c:	0e1b      	lsrs	r3, r3, #24
 8000b5e:	3301      	adds	r3, #1
 8000b60:	60fb      	str	r3, [r7, #12]
D:\Software\workspace_2\XMC4500_IO_Flat\Debug/../system/CMSIS/Infineon/XMC4500_series/Source/System_XMC4500.c:308
		 NDIV = ((SCU_PLL->PLLCON1 & SCU_PLL_PLLCON1_NDIV_Msk)>>8)+1;
 8000b62:	4b28      	ldr	r3, [pc, #160]	; (8000c04 <SystemCoreClockUpdate+0xcc>)
 8000b64:	689b      	ldr	r3, [r3, #8]
 8000b66:	f403 43fe 	and.w	r3, r3, #32512	; 0x7f00
 8000b6a:	0a1b      	lsrs	r3, r3, #8
 8000b6c:	3301      	adds	r3, #1
 8000b6e:	60bb      	str	r3, [r7, #8]
D:\Software\workspace_2\XMC4500_IO_Flat\Debug/../system/CMSIS/Infineon/XMC4500_series/Source/System_XMC4500.c:309
		 K2DIV  = ((SCU_PLL->PLLCON1 & SCU_PLL_PLLCON1_K2DIV_Msk)>>16)+1;
 8000b70:	4b24      	ldr	r3, [pc, #144]	; (8000c04 <SystemCoreClockUpdate+0xcc>)
 8000b72:	689b      	ldr	r3, [r3, #8]
 8000b74:	f403 03fe 	and.w	r3, r3, #8323072	; 0x7f0000
 8000b78:	0c1b      	lsrs	r3, r3, #16
 8000b7a:	3301      	adds	r3, #1
 8000b7c:	607b      	str	r3, [r7, #4]
D:\Software\workspace_2\XMC4500_IO_Flat\Debug/../system/CMSIS/Infineon/XMC4500_series/Source/System_XMC4500.c:311

		if(SCU_PLL->PLLCON2 & SCU_PLL_PLLCON2_PINSEL_Msk){
 8000b7e:	4b21      	ldr	r3, [pc, #132]	; (8000c04 <SystemCoreClockUpdate+0xcc>)
 8000b80:	68db      	ldr	r3, [r3, #12]
 8000b82:	f003 0301 	and.w	r3, r3, #1
 8000b86:	2b00      	cmp	r3, #0
 8000b88:	d018      	beq.n	8000bbc <SystemCoreClockUpdate+0x84>
D:\Software\workspace_2\XMC4500_IO_Flat\Debug/../system/CMSIS/Infineon/XMC4500_series/Source/System_XMC4500.c:313
		/* the selected clock is the Backup clock fofi */
		VCO = (CLOCK_BACK_UP/PDIV)*NDIV;
 8000b8a:	4a1f      	ldr	r2, [pc, #124]	; (8000c08 <SystemCoreClockUpdate+0xd0>)
 8000b8c:	68fb      	ldr	r3, [r7, #12]
 8000b8e:	fbb2 f3f3 	udiv	r3, r2, r3
 8000b92:	68ba      	ldr	r2, [r7, #8]
 8000b94:	fb02 f303 	mul.w	r3, r2, r3
 8000b98:	603b      	str	r3, [r7, #0]
D:\Software\workspace_2\XMC4500_IO_Flat\Debug/../system/CMSIS/Infineon/XMC4500_series/Source/System_XMC4500.c:314
		SystemCoreClock = VCO/K2DIV;
 8000b9a:	683a      	ldr	r2, [r7, #0]
 8000b9c:	687b      	ldr	r3, [r7, #4]
 8000b9e:	fbb2 f3f3 	udiv	r3, r2, r3
 8000ba2:	4a1a      	ldr	r2, [pc, #104]	; (8000c0c <SystemCoreClockUpdate+0xd4>)
 8000ba4:	6013      	str	r3, [r2, #0]
D:\Software\workspace_2\XMC4500_IO_Flat\Debug/../system/CMSIS/Infineon/XMC4500_series/Source/System_XMC4500.c:316
		/* in case the sysclock div is used */
		SystemCoreClock = SystemCoreClock/((SCU_CLK->SYSCLKCR & SCU_CLK_SYSCLKCR_SYSDIV_Msk)+1);
 8000ba6:	4b19      	ldr	r3, [pc, #100]	; (8000c0c <SystemCoreClockUpdate+0xd4>)
 8000ba8:	681a      	ldr	r2, [r3, #0]
 8000baa:	4b15      	ldr	r3, [pc, #84]	; (8000c00 <SystemCoreClockUpdate+0xc8>)
 8000bac:	68db      	ldr	r3, [r3, #12]
 8000bae:	b2db      	uxtb	r3, r3
 8000bb0:	3301      	adds	r3, #1
 8000bb2:	fbb2 f3f3 	udiv	r3, r2, r3
 8000bb6:	4a15      	ldr	r2, [pc, #84]	; (8000c0c <SystemCoreClockUpdate+0xd4>)
 8000bb8:	6013      	str	r3, [r2, #0]
D:\Software\workspace_2\XMC4500_IO_Flat\Debug/../system/CMSIS/Infineon/XMC4500_series/Source/System_XMC4500.c:337
{
SystemCoreClock = CLOCK_BACK_UP;
}


}
 8000bba:	e01b      	b.n	8000bf4 <SystemCoreClockUpdate+0xbc>
D:\Software\workspace_2\XMC4500_IO_Flat\Debug/../system/CMSIS/Infineon/XMC4500_series/Source/System_XMC4500.c:322
		
		}
		else
		{
		/* the selected clock is the PLL external oscillator */		
		VCO = (CLOCK_CRYSTAL_FREQUENCY/PDIV)*NDIV;
 8000bbc:	4a14      	ldr	r2, [pc, #80]	; (8000c10 <SystemCoreClockUpdate+0xd8>)
 8000bbe:	68fb      	ldr	r3, [r7, #12]
 8000bc0:	fbb2 f3f3 	udiv	r3, r2, r3
 8000bc4:	68ba      	ldr	r2, [r7, #8]
 8000bc6:	fb02 f303 	mul.w	r3, r2, r3
 8000bca:	603b      	str	r3, [r7, #0]
D:\Software\workspace_2\XMC4500_IO_Flat\Debug/../system/CMSIS/Infineon/XMC4500_series/Source/System_XMC4500.c:323
		SystemCoreClock = VCO/K2DIV;
 8000bcc:	683a      	ldr	r2, [r7, #0]
 8000bce:	687b      	ldr	r3, [r7, #4]
 8000bd0:	fbb2 f3f3 	udiv	r3, r2, r3
 8000bd4:	4a0d      	ldr	r2, [pc, #52]	; (8000c0c <SystemCoreClockUpdate+0xd4>)
 8000bd6:	6013      	str	r3, [r2, #0]
D:\Software\workspace_2\XMC4500_IO_Flat\Debug/../system/CMSIS/Infineon/XMC4500_series/Source/System_XMC4500.c:325
		/* in case the sysclock div is used */
		SystemCoreClock = SystemCoreClock/((SCU_CLK->SYSCLKCR & SCU_CLK_SYSCLKCR_SYSDIV_Msk)+1);
 8000bd8:	4b0c      	ldr	r3, [pc, #48]	; (8000c0c <SystemCoreClockUpdate+0xd4>)
 8000bda:	681a      	ldr	r2, [r3, #0]
 8000bdc:	4b08      	ldr	r3, [pc, #32]	; (8000c00 <SystemCoreClockUpdate+0xc8>)
 8000bde:	68db      	ldr	r3, [r3, #12]
 8000be0:	b2db      	uxtb	r3, r3
 8000be2:	3301      	adds	r3, #1
 8000be4:	fbb2 f3f3 	udiv	r3, r2, r3
 8000be8:	4a08      	ldr	r2, [pc, #32]	; (8000c0c <SystemCoreClockUpdate+0xd4>)
 8000bea:	6013      	str	r3, [r2, #0]
D:\Software\workspace_2\XMC4500_IO_Flat\Debug/../system/CMSIS/Infineon/XMC4500_series/Source/System_XMC4500.c:337
{
SystemCoreClock = CLOCK_BACK_UP;
}


}
 8000bec:	e002      	b.n	8000bf4 <SystemCoreClockUpdate+0xbc>
D:\Software\workspace_2\XMC4500_IO_Flat\Debug/../system/CMSIS/Infineon/XMC4500_series/Source/System_XMC4500.c:333
	
	}
}
else
{
SystemCoreClock = CLOCK_BACK_UP;
 8000bee:	4b07      	ldr	r3, [pc, #28]	; (8000c0c <SystemCoreClockUpdate+0xd4>)
 8000bf0:	4a05      	ldr	r2, [pc, #20]	; (8000c08 <SystemCoreClockUpdate+0xd0>)
 8000bf2:	601a      	str	r2, [r3, #0]
D:\Software\workspace_2\XMC4500_IO_Flat\Debug/../system/CMSIS/Infineon/XMC4500_series/Source/System_XMC4500.c:337
}


}
 8000bf4:	bf00      	nop
 8000bf6:	3714      	adds	r7, #20
 8000bf8:	46bd      	mov	sp, r7
 8000bfa:	bc80      	pop	{r7}
 8000bfc:	4770      	bx	lr
 8000bfe:	bf00      	nop
 8000c00:	50004600 	.word	0x50004600
 8000c04:	50004710 	.word	0x50004710
 8000c08:	016e3600 	.word	0x016e3600
 8000c0c:	20000870 	.word	0x20000870
 8000c10:	00b71b00 	.word	0x00b71b00

08000c14 <SystemClockSetup>:
SystemClockSetup():
D:\Software\workspace_2\XMC4500_IO_Flat\Debug/../system/CMSIS/Infineon/XMC4500_series/Source/System_XMC4500.c:348
  * @param  None
  * @retval None
  */
#if (SCU_CLOCK_SETUP == 1)
static int SystemClockSetup(void)
{
 8000c14:	b580      	push	{r7, lr}
 8000c16:	b082      	sub	sp, #8
 8000c18:	af00      	add	r7, sp, #0
D:\Software\workspace_2\XMC4500_IO_Flat\Debug/../system/CMSIS/Infineon/XMC4500_series/Source/System_XMC4500.c:354
int temp;
unsigned int long VCO;
int stepping_K2DIV;	

/* this weak function enables DAVE3 clock App usage */	
if(AllowPLLInitByStartup()){
 8000c1a:	f7ff fe7c 	bl	8000916 <AllowPLLInitByStartup>
 8000c1e:	4603      	mov	r3, r0
 8000c20:	2b00      	cmp	r3, #0
 8000c22:	f000 8133 	beq.w	8000e8c <SystemClockSetup+0x278>
D:\Software\workspace_2\XMC4500_IO_Flat\Debug/../system/CMSIS/Infineon/XMC4500_series/Source/System_XMC4500.c:357
	
/* check if PLL is switched on */
if ((SCU_PLL->PLLCON0 &(SCU_PLL_PLLCON0_VCOPWD_Msk | SCU_PLL_PLLCON0_PLLPWD_Msk)) != 0){
 8000c26:	4b9c      	ldr	r3, [pc, #624]	; (8000e98 <SystemClockSetup+0x284>)
 8000c28:	685a      	ldr	r2, [r3, #4]
 8000c2a:	4b9c      	ldr	r3, [pc, #624]	; (8000e9c <SystemClockSetup+0x288>)
 8000c2c:	4013      	ands	r3, r2
 8000c2e:	2b00      	cmp	r3, #0
 8000c30:	d007      	beq.n	8000c42 <SystemClockSetup+0x2e>
D:\Software\workspace_2\XMC4500_IO_Flat\Debug/../system/CMSIS/Infineon/XMC4500_series/Source/System_XMC4500.c:359
/* enable PLL first */
  SCU_PLL->PLLCON0 &= ~(SCU_PLL_PLLCON0_VCOPWD_Msk | SCU_PLL_PLLCON0_PLLPWD_Msk);
 8000c32:	4a99      	ldr	r2, [pc, #612]	; (8000e98 <SystemClockSetup+0x284>)
 8000c34:	4b98      	ldr	r3, [pc, #608]	; (8000e98 <SystemClockSetup+0x284>)
 8000c36:	685b      	ldr	r3, [r3, #4]
 8000c38:	f423 3380 	bic.w	r3, r3, #65536	; 0x10000
 8000c3c:	f023 0302 	bic.w	r3, r3, #2
 8000c40:	6053      	str	r3, [r2, #4]
D:\Software\workspace_2\XMC4500_IO_Flat\Debug/../system/CMSIS/Infineon/XMC4500_series/Source/System_XMC4500.c:370
  {
	/********************************************************************************************************************/
	/*   Use external crystal for PLL clock input                                                                            */
	/********************************************************************************************************************/

   if (SCU_OSC->OSCHPCTRL & SCU_OSC_OSCHPCTRL_MODE_Msk){
 8000c42:	4b97      	ldr	r3, [pc, #604]	; (8000ea0 <SystemClockSetup+0x28c>)
 8000c44:	685b      	ldr	r3, [r3, #4]
 8000c46:	f003 0330 	and.w	r3, r3, #48	; 0x30
 8000c4a:	2b00      	cmp	r3, #0
 8000c4c:	d03b      	beq.n	8000cc6 <SystemClockSetup+0xb2>
D:\Software\workspace_2\XMC4500_IO_Flat\Debug/../system/CMSIS/Infineon/XMC4500_series/Source/System_XMC4500.c:371
	   SCU_OSC->OSCHPCTRL &= ~(SCU_OSC_HP_MODE);	 /*enable the OSC_HP*/
 8000c4e:	4a94      	ldr	r2, [pc, #592]	; (8000ea0 <SystemClockSetup+0x28c>)
 8000c50:	4b93      	ldr	r3, [pc, #588]	; (8000ea0 <SystemClockSetup+0x28c>)
 8000c52:	685b      	ldr	r3, [r3, #4]
 8000c54:	f023 03f0 	bic.w	r3, r3, #240	; 0xf0
 8000c58:	6053      	str	r3, [r2, #4]
D:\Software\workspace_2\XMC4500_IO_Flat\Debug/../system/CMSIS/Infineon/XMC4500_series/Source/System_XMC4500.c:373
	   /* setup OSC WDG devider */
	   SCU_OSC->OSCHPCTRL |= (SCU_OSCHPWDGDIV<<16);         
 8000c5a:	4a91      	ldr	r2, [pc, #580]	; (8000ea0 <SystemClockSetup+0x28c>)
 8000c5c:	4b90      	ldr	r3, [pc, #576]	; (8000ea0 <SystemClockSetup+0x28c>)
 8000c5e:	685b      	ldr	r3, [r3, #4]
 8000c60:	f443 3300 	orr.w	r3, r3, #131072	; 0x20000
 8000c64:	6053      	str	r3, [r2, #4]
D:\Software\workspace_2\XMC4500_IO_Flat\Debug/../system/CMSIS/Infineon/XMC4500_series/Source/System_XMC4500.c:375
	   /* select external OSC as PLL input */
	   SCU_PLL->PLLCON2 &= ~SCU_PLL_PLLCON2_PINSEL_Msk;
 8000c66:	4a8c      	ldr	r2, [pc, #560]	; (8000e98 <SystemClockSetup+0x284>)
 8000c68:	4b8b      	ldr	r3, [pc, #556]	; (8000e98 <SystemClockSetup+0x284>)
 8000c6a:	68db      	ldr	r3, [r3, #12]
 8000c6c:	f023 0301 	bic.w	r3, r3, #1
 8000c70:	60d3      	str	r3, [r2, #12]
D:\Software\workspace_2\XMC4500_IO_Flat\Debug/../system/CMSIS/Infineon/XMC4500_series/Source/System_XMC4500.c:377
	   /* restart OSC Watchdog */
	   SCU_PLL->PLLCON0 &= ~SCU_PLL_PLLCON0_OSCRES_Msk;  
 8000c72:	4a89      	ldr	r2, [pc, #548]	; (8000e98 <SystemClockSetup+0x284>)
 8000c74:	4b88      	ldr	r3, [pc, #544]	; (8000e98 <SystemClockSetup+0x284>)
 8000c76:	685b      	ldr	r3, [r3, #4]
 8000c78:	f423 3300 	bic.w	r3, r3, #131072	; 0x20000
 8000c7c:	6053      	str	r3, [r2, #4]
D:\Software\workspace_2\XMC4500_IO_Flat\Debug/../system/CMSIS/Infineon/XMC4500_series/Source/System_XMC4500.c:381

       /* Timeout for wait loop ~150ms */
	   /********************************/
	   SysTick->LOAD  = ((5000000+100) & SysTick_LOAD_RELOAD_Msk) - 1;/* set reload register */
 8000c7e:	4b89      	ldr	r3, [pc, #548]	; (8000ea4 <SystemClockSetup+0x290>)
 8000c80:	4a89      	ldr	r2, [pc, #548]	; (8000ea8 <SystemClockSetup+0x294>)
 8000c82:	605a      	str	r2, [r3, #4]
D:\Software\workspace_2\XMC4500_IO_Flat\Debug/../system/CMSIS/Infineon/XMC4500_series/Source/System_XMC4500.c:382
	   SysTick->VAL   = 0;                                         /* Load the SysTick Counter Value */
 8000c84:	4b87      	ldr	r3, [pc, #540]	; (8000ea4 <SystemClockSetup+0x290>)
 8000c86:	2200      	movs	r2, #0
 8000c88:	609a      	str	r2, [r3, #8]
D:\Software\workspace_2\XMC4500_IO_Flat\Debug/../system/CMSIS/Infineon/XMC4500_series/Source/System_XMC4500.c:383
	   SysTick->CTRL  = SysTick_CTRL_CLKSOURCE_Msk |
 8000c8a:	4b86      	ldr	r3, [pc, #536]	; (8000ea4 <SystemClockSetup+0x290>)
 8000c8c:	2205      	movs	r2, #5
 8000c8e:	601a      	str	r2, [r3, #0]
D:\Software\workspace_2\XMC4500_IO_Flat\Debug/../system/CMSIS/Infineon/XMC4500_series/Source/System_XMC4500.c:388 (discriminator 2)
	                   SysTick_CTRL_ENABLE_Msk;                    /* Enable SysTick IRQ and SysTick Timer */		  
	   do 
	   {
       ;/* wait for ~150ms  */
	   }while((((SCU_PLL->PLLSTAT) & (SCU_PLL_PLLSTAT_PLLHV_Msk | SCU_PLL_PLLSTAT_PLLLV_Msk |SCU_PLL_PLLSTAT_PLLSP_Msk)) != 0x380)&&(SysTick->VAL >= 500)); 
 8000c90:	4b81      	ldr	r3, [pc, #516]	; (8000e98 <SystemClockSetup+0x284>)
 8000c92:	681b      	ldr	r3, [r3, #0]
 8000c94:	f403 7360 	and.w	r3, r3, #896	; 0x380
 8000c98:	f5b3 7f60 	cmp.w	r3, #896	; 0x380
 8000c9c:	d004      	beq.n	8000ca8 <SystemClockSetup+0x94>
D:\Software\workspace_2\XMC4500_IO_Flat\Debug/../system/CMSIS/Infineon/XMC4500_series/Source/System_XMC4500.c:388 (discriminator 1)
 8000c9e:	4b81      	ldr	r3, [pc, #516]	; (8000ea4 <SystemClockSetup+0x290>)
 8000ca0:	689b      	ldr	r3, [r3, #8]
 8000ca2:	f5b3 7ffa 	cmp.w	r3, #500	; 0x1f4
 8000ca6:	d2f3      	bcs.n	8000c90 <SystemClockSetup+0x7c>
D:\Software\workspace_2\XMC4500_IO_Flat\Debug/../system/CMSIS/Infineon/XMC4500_series/Source/System_XMC4500.c:390

	   SysTick->CTRL  &= ~SysTick_CTRL_ENABLE_Msk;                 /* Stop SysTick Timer */
 8000ca8:	4a7e      	ldr	r2, [pc, #504]	; (8000ea4 <SystemClockSetup+0x290>)
 8000caa:	4b7e      	ldr	r3, [pc, #504]	; (8000ea4 <SystemClockSetup+0x290>)
 8000cac:	681b      	ldr	r3, [r3, #0]
 8000cae:	f023 0301 	bic.w	r3, r3, #1
 8000cb2:	6013      	str	r3, [r2, #0]
D:\Software\workspace_2\XMC4500_IO_Flat\Debug/../system/CMSIS/Infineon/XMC4500_series/Source/System_XMC4500.c:391
	   if (((SCU_PLL->PLLSTAT) & (SCU_PLL_PLLSTAT_PLLHV_Msk | SCU_PLL_PLLSTAT_PLLLV_Msk |SCU_PLL_PLLSTAT_PLLSP_Msk)) != 0x380)
 8000cb4:	4b78      	ldr	r3, [pc, #480]	; (8000e98 <SystemClockSetup+0x284>)
 8000cb6:	681b      	ldr	r3, [r3, #0]
 8000cb8:	f403 7360 	and.w	r3, r3, #896	; 0x380
 8000cbc:	f5b3 7f60 	cmp.w	r3, #896	; 0x380
 8000cc0:	d001      	beq.n	8000cc6 <SystemClockSetup+0xb2>
D:\Software\workspace_2\XMC4500_IO_Flat\Debug/../system/CMSIS/Infineon/XMC4500_series/Source/System_XMC4500.c:392
	   return(0);/* Return Error */
 8000cc2:	2300      	movs	r3, #0
 8000cc4:	e0e3      	b.n	8000e8e <SystemClockSetup+0x27a>
D:\Software\workspace_2\XMC4500_IO_Flat\Debug/../system/CMSIS/Infineon/XMC4500_series/Source/System_XMC4500.c:482

	/********************************************************************************************************************/
	/*   Setup and look the main PLL                                                                                    */
	/********************************************************************************************************************/

if (!(SCU_PLL->PLLSTAT & SCU_PLL_PLLSTAT_VCOLOCK_Msk)){
 8000cc6:	4b74      	ldr	r3, [pc, #464]	; (8000e98 <SystemClockSetup+0x284>)
 8000cc8:	681b      	ldr	r3, [r3, #0]
 8000cca:	f003 0304 	and.w	r3, r3, #4
 8000cce:	2b00      	cmp	r3, #0
 8000cd0:	f040 80dc 	bne.w	8000e8c <SystemClockSetup+0x278>
D:\Software\workspace_2\XMC4500_IO_Flat\Debug/../system/CMSIS/Infineon/XMC4500_series/Source/System_XMC4500.c:485
	/* Systen is still running from internal clock */
		   /* select FOFI as system clock */
		   if((SCU_CLK->SYSCLKCR & SCU_CLK_SYSCLKCR_SYSSEL_Msk) != 0x0)SCU_CLK->SYSCLKCR &= ~SCU_CLK_SYSCLKCR_SYSSEL_Msk; /*Select FOFI*/
 8000cd4:	4b75      	ldr	r3, [pc, #468]	; (8000eac <SystemClockSetup+0x298>)
 8000cd6:	68db      	ldr	r3, [r3, #12]
 8000cd8:	f403 3380 	and.w	r3, r3, #65536	; 0x10000
 8000cdc:	2b00      	cmp	r3, #0
 8000cde:	d005      	beq.n	8000cec <SystemClockSetup+0xd8>
D:\Software\workspace_2\XMC4500_IO_Flat\Debug/../system/CMSIS/Infineon/XMC4500_series/Source/System_XMC4500.c:485 (discriminator 1)
 8000ce0:	4a72      	ldr	r2, [pc, #456]	; (8000eac <SystemClockSetup+0x298>)
 8000ce2:	4b72      	ldr	r3, [pc, #456]	; (8000eac <SystemClockSetup+0x298>)
 8000ce4:	68db      	ldr	r3, [r3, #12]
 8000ce6:	f423 3380 	bic.w	r3, r3, #65536	; 0x10000
 8000cea:	60d3      	str	r3, [r2, #12]
D:\Software\workspace_2\XMC4500_IO_Flat\Debug/../system/CMSIS/Infineon/XMC4500_series/Source/System_XMC4500.c:489 (discriminator 1)


			 /*calulation for stepping*/
			 if (SCU_PLL_CLOCK_INPUT == SCU_CLOCK_CRYSTAL)VCO = (CLOCK_CRYSTAL_FREQUENCY/(SCU_PLL_PDIV+1))*(SCU_PLL_NDIV+1);
 8000cec:	4b70      	ldr	r3, [pc, #448]	; (8000eb0 <SystemClockSetup+0x29c>)
 8000cee:	607b      	str	r3, [r7, #4]
D:\Software\workspace_2\XMC4500_IO_Flat\Debug/../system/CMSIS/Infineon/XMC4500_series/Source/System_XMC4500.c:493 (discriminator 1)
			 if ((SCU_PLL_CLOCK_INPUT == SCU_CLOCK_BACK_UP_AUTOMATIC) ||(SCU_PLL_CLOCK_INPUT == SCU_CLOCK_BACK_UP_FACTORY))
					VCO = (CLOCK_BACK_UP/(SCU_PLL_PDIV+1))*(SCU_PLL_NDIV+1);
	 
			 stepping_K2DIV = (VCO/24000000)-1;	
 8000cf0:	687b      	ldr	r3, [r7, #4]
 8000cf2:	4a70      	ldr	r2, [pc, #448]	; (8000eb4 <SystemClockSetup+0x2a0>)
 8000cf4:	fba2 2303 	umull	r2, r3, r2, r3
 8000cf8:	0d5b      	lsrs	r3, r3, #21
 8000cfa:	3b01      	subs	r3, #1
 8000cfc:	603b      	str	r3, [r7, #0]
D:\Software\workspace_2\XMC4500_IO_Flat\Debug/../system/CMSIS/Infineon/XMC4500_series/Source/System_XMC4500.c:495 (discriminator 1)
			 /* Go to bypass the Main PLL */
		   SCU_PLL->PLLCON0 |= SCU_PLL_PLLCON0_VCOBYP_Msk;
 8000cfe:	4a66      	ldr	r2, [pc, #408]	; (8000e98 <SystemClockSetup+0x284>)
 8000d00:	4b65      	ldr	r3, [pc, #404]	; (8000e98 <SystemClockSetup+0x284>)
 8000d02:	685b      	ldr	r3, [r3, #4]
 8000d04:	f043 0301 	orr.w	r3, r3, #1
 8000d08:	6053      	str	r3, [r2, #4]
D:\Software\workspace_2\XMC4500_IO_Flat\Debug/../system/CMSIS/Infineon/XMC4500_series/Source/System_XMC4500.c:497 (discriminator 1)
		   /* disconnect OSC_HP to PLL */
		   SCU_PLL->PLLCON0 |= SCU_PLL_PLLCON0_FINDIS_Msk;
 8000d0a:	4a63      	ldr	r2, [pc, #396]	; (8000e98 <SystemClockSetup+0x284>)
 8000d0c:	4b62      	ldr	r3, [pc, #392]	; (8000e98 <SystemClockSetup+0x284>)
 8000d0e:	685b      	ldr	r3, [r3, #4]
 8000d10:	f043 0310 	orr.w	r3, r3, #16
 8000d14:	6053      	str	r3, [r2, #4]
D:\Software\workspace_2\XMC4500_IO_Flat\Debug/../system/CMSIS/Infineon/XMC4500_series/Source/System_XMC4500.c:499 (discriminator 1)
		   /* Setup devider settings for main PLL */
		   SCU_PLL->PLLCON1 = ((SCU_PLL_K1DIV) | (SCU_PLL_NDIV<<8) | (stepping_K2DIV<<16) | (SCU_PLL_PDIV<<24));
 8000d16:	4960      	ldr	r1, [pc, #384]	; (8000e98 <SystemClockSetup+0x284>)
 8000d18:	683b      	ldr	r3, [r7, #0]
 8000d1a:	041a      	lsls	r2, r3, #16
 8000d1c:	4b66      	ldr	r3, [pc, #408]	; (8000eb8 <SystemClockSetup+0x2a4>)
 8000d1e:	4313      	orrs	r3, r2
 8000d20:	608b      	str	r3, [r1, #8]
D:\Software\workspace_2\XMC4500_IO_Flat\Debug/../system/CMSIS/Infineon/XMC4500_series/Source/System_XMC4500.c:501 (discriminator 1)
		   /* we may have to set OSCDISCDIS */
		   SCU_PLL->PLLCON0 |= SCU_PLL_PLLCON0_OSCDISCDIS_Msk;
 8000d22:	4a5d      	ldr	r2, [pc, #372]	; (8000e98 <SystemClockSetup+0x284>)
 8000d24:	4b5c      	ldr	r3, [pc, #368]	; (8000e98 <SystemClockSetup+0x284>)
 8000d26:	685b      	ldr	r3, [r3, #4]
 8000d28:	f043 0340 	orr.w	r3, r3, #64	; 0x40
 8000d2c:	6053      	str	r3, [r2, #4]
D:\Software\workspace_2\XMC4500_IO_Flat\Debug/../system/CMSIS/Infineon/XMC4500_series/Source/System_XMC4500.c:503 (discriminator 1)
		   /* connect OSC_HP to PLL */
		   SCU_PLL->PLLCON0 &= ~SCU_PLL_PLLCON0_FINDIS_Msk;
 8000d2e:	4a5a      	ldr	r2, [pc, #360]	; (8000e98 <SystemClockSetup+0x284>)
 8000d30:	4b59      	ldr	r3, [pc, #356]	; (8000e98 <SystemClockSetup+0x284>)
 8000d32:	685b      	ldr	r3, [r3, #4]
 8000d34:	f023 0310 	bic.w	r3, r3, #16
 8000d38:	6053      	str	r3, [r2, #4]
D:\Software\workspace_2\XMC4500_IO_Flat\Debug/../system/CMSIS/Infineon/XMC4500_series/Source/System_XMC4500.c:505 (discriminator 1)
		   /* restart PLL Lock detection */
		   SCU_PLL->PLLCON0 |= SCU_PLL_PLLCON0_RESLD_Msk;
 8000d3a:	4a57      	ldr	r2, [pc, #348]	; (8000e98 <SystemClockSetup+0x284>)
 8000d3c:	4b56      	ldr	r3, [pc, #344]	; (8000e98 <SystemClockSetup+0x284>)
 8000d3e:	685b      	ldr	r3, [r3, #4]
 8000d40:	f443 2380 	orr.w	r3, r3, #262144	; 0x40000
 8000d44:	6053      	str	r3, [r2, #4]
D:\Software\workspace_2\XMC4500_IO_Flat\Debug/../system/CMSIS/Infineon/XMC4500_series/Source/System_XMC4500.c:510 (discriminator 1)
		   /* wait for PLL Lock */
		   /* setup time out loop */
	       /* Timeout for wait loo ~150ms */
		   /********************************/
		   SysTick->LOAD  = ((5000000+100) & SysTick_LOAD_RELOAD_Msk) - 1;/* set reload register */
 8000d46:	4b57      	ldr	r3, [pc, #348]	; (8000ea4 <SystemClockSetup+0x290>)
 8000d48:	4a57      	ldr	r2, [pc, #348]	; (8000ea8 <SystemClockSetup+0x294>)
 8000d4a:	605a      	str	r2, [r3, #4]
D:\Software\workspace_2\XMC4500_IO_Flat\Debug/../system/CMSIS/Infineon/XMC4500_series/Source/System_XMC4500.c:511 (discriminator 1)
		   SysTick->VAL   = 0;                                         /* Load the SysTick Counter Value */
 8000d4c:	4b55      	ldr	r3, [pc, #340]	; (8000ea4 <SystemClockSetup+0x290>)
 8000d4e:	2200      	movs	r2, #0
 8000d50:	609a      	str	r2, [r3, #8]
D:\Software\workspace_2\XMC4500_IO_Flat\Debug/../system/CMSIS/Infineon/XMC4500_series/Source/System_XMC4500.c:512 (discriminator 1)
		   SysTick->CTRL  = SysTick_CTRL_CLKSOURCE_Msk |
 8000d52:	4b54      	ldr	r3, [pc, #336]	; (8000ea4 <SystemClockSetup+0x290>)
 8000d54:	2205      	movs	r2, #5
 8000d56:	601a      	str	r2, [r3, #0]
D:\Software\workspace_2\XMC4500_IO_Flat\Debug/../system/CMSIS/Infineon/XMC4500_series/Source/System_XMC4500.c:515 (discriminator 1)
		                   SysTick_CTRL_ENABLE_Msk;                    /* Enable SysTick IRQ and SysTick Timer */		  
		   
		   while ((!(SCU_PLL->PLLSTAT & SCU_PLL_PLLSTAT_VCOLOCK_Msk))&&(SysTick->VAL >= 500));
 8000d58:	bf00      	nop
D:\Software\workspace_2\XMC4500_IO_Flat\Debug/../system/CMSIS/Infineon/XMC4500_series/Source/System_XMC4500.c:515 (discriminator 2)
 8000d5a:	4b4f      	ldr	r3, [pc, #316]	; (8000e98 <SystemClockSetup+0x284>)
 8000d5c:	681b      	ldr	r3, [r3, #0]
 8000d5e:	f003 0304 	and.w	r3, r3, #4
 8000d62:	2b00      	cmp	r3, #0
 8000d64:	d104      	bne.n	8000d70 <SystemClockSetup+0x15c>
D:\Software\workspace_2\XMC4500_IO_Flat\Debug/../system/CMSIS/Infineon/XMC4500_series/Source/System_XMC4500.c:515 (discriminator 1)
 8000d66:	4b4f      	ldr	r3, [pc, #316]	; (8000ea4 <SystemClockSetup+0x290>)
 8000d68:	689b      	ldr	r3, [r3, #8]
 8000d6a:	f5b3 7ffa 	cmp.w	r3, #500	; 0x1f4
 8000d6e:	d2f4      	bcs.n	8000d5a <SystemClockSetup+0x146>
D:\Software\workspace_2\XMC4500_IO_Flat\Debug/../system/CMSIS/Infineon/XMC4500_series/Source/System_XMC4500.c:516
	       SysTick->CTRL  &= ~SysTick_CTRL_ENABLE_Msk;                 /* Stop SysTick Timer */
 8000d70:	4a4c      	ldr	r2, [pc, #304]	; (8000ea4 <SystemClockSetup+0x290>)
 8000d72:	4b4c      	ldr	r3, [pc, #304]	; (8000ea4 <SystemClockSetup+0x290>)
 8000d74:	681b      	ldr	r3, [r3, #0]
 8000d76:	f023 0301 	bic.w	r3, r3, #1
 8000d7a:	6013      	str	r3, [r2, #0]
D:\Software\workspace_2\XMC4500_IO_Flat\Debug/../system/CMSIS/Infineon/XMC4500_series/Source/System_XMC4500.c:518

		   if ((SCU_PLL->PLLSTAT & SCU_PLL_PLLSTAT_VCOLOCK_Msk)==SCU_PLL_PLLSTAT_VCOLOCK_Msk)
 8000d7c:	4b46      	ldr	r3, [pc, #280]	; (8000e98 <SystemClockSetup+0x284>)
 8000d7e:	681b      	ldr	r3, [r3, #0]
 8000d80:	f003 0304 	and.w	r3, r3, #4
 8000d84:	2b00      	cmp	r3, #0
 8000d86:	d025      	beq.n	8000dd4 <SystemClockSetup+0x1c0>
D:\Software\workspace_2\XMC4500_IO_Flat\Debug/../system/CMSIS/Infineon/XMC4500_series/Source/System_XMC4500.c:521
		   		{
				/* Go back to the Main PLL */
				SCU_PLL->PLLCON0 &= ~SCU_PLL_PLLCON0_VCOBYP_Msk;
 8000d88:	4a43      	ldr	r2, [pc, #268]	; (8000e98 <SystemClockSetup+0x284>)
 8000d8a:	4b43      	ldr	r3, [pc, #268]	; (8000e98 <SystemClockSetup+0x284>)
 8000d8c:	685b      	ldr	r3, [r3, #4]
 8000d8e:	f023 0301 	bic.w	r3, r3, #1
 8000d92:	6053      	str	r3, [r2, #4]
D:\Software\workspace_2\XMC4500_IO_Flat\Debug/../system/CMSIS/Infineon/XMC4500_series/Source/System_XMC4500.c:530
	
	   /*********************************************************
	   here we need to setup the system clock divider
	   *********************************************************/
	
		SCU_CLK->CPUCLKCR = SCU_CPUCLKCR_DIV;
 8000d94:	4b45      	ldr	r3, [pc, #276]	; (8000eac <SystemClockSetup+0x298>)
 8000d96:	2200      	movs	r2, #0
 8000d98:	611a      	str	r2, [r3, #16]
D:\Software\workspace_2\XMC4500_IO_Flat\Debug/../system/CMSIS/Infineon/XMC4500_series/Source/System_XMC4500.c:531
		SCU_CLK->PBCLKCR = SCU_PBCLKCR_DIV;	
 8000d9a:	4b44      	ldr	r3, [pc, #272]	; (8000eac <SystemClockSetup+0x298>)
 8000d9c:	2200      	movs	r2, #0
 8000d9e:	615a      	str	r2, [r3, #20]
D:\Software\workspace_2\XMC4500_IO_Flat\Debug/../system/CMSIS/Infineon/XMC4500_series/Source/System_XMC4500.c:532
		SCU_CLK->CCUCLKCR = SCU_CCUCLKCR_DIV;
 8000da0:	4b42      	ldr	r3, [pc, #264]	; (8000eac <SystemClockSetup+0x298>)
 8000da2:	2200      	movs	r2, #0
 8000da4:	621a      	str	r2, [r3, #32]
D:\Software\workspace_2\XMC4500_IO_Flat\Debug/../system/CMSIS/Infineon/XMC4500_series/Source/System_XMC4500.c:536
	

		 /* Switch system clock to PLL */
	   SCU_CLK->SYSCLKCR |=  0x00010000; 
 8000da6:	4a41      	ldr	r2, [pc, #260]	; (8000eac <SystemClockSetup+0x298>)
 8000da8:	4b40      	ldr	r3, [pc, #256]	; (8000eac <SystemClockSetup+0x298>)
 8000daa:	68db      	ldr	r3, [r3, #12]
 8000dac:	f443 3380 	orr.w	r3, r3, #65536	; 0x10000
 8000db0:	60d3      	str	r3, [r2, #12]
D:\Software\workspace_2\XMC4500_IO_Flat\Debug/../system/CMSIS/Infineon/XMC4500_series/Source/System_XMC4500.c:539
				
	   /* we may have to reset OSCDISCDIS */
	   SCU_PLL->PLLCON0 &= ~SCU_PLL_PLLCON0_OSCDISCDIS_Msk;
 8000db2:	4a39      	ldr	r2, [pc, #228]	; (8000e98 <SystemClockSetup+0x284>)
 8000db4:	4b38      	ldr	r3, [pc, #224]	; (8000e98 <SystemClockSetup+0x284>)
 8000db6:	685b      	ldr	r3, [r3, #4]
 8000db8:	f023 0340 	bic.w	r3, r3, #64	; 0x40
 8000dbc:	6053      	str	r3, [r2, #4]
D:\Software\workspace_2\XMC4500_IO_Flat\Debug/../system/CMSIS/Infineon/XMC4500_series/Source/System_XMC4500.c:545
				
																  
		 /*********************************************************/
		 /* Delay for next K2 step ~50s */
		 /*********************************************************/
		 SysTick->LOAD  = ((1250+100) & SysTick_LOAD_RELOAD_Msk) - 1;/* set reload register */
 8000dbe:	4b39      	ldr	r3, [pc, #228]	; (8000ea4 <SystemClockSetup+0x290>)
 8000dc0:	f240 5245 	movw	r2, #1349	; 0x545
 8000dc4:	605a      	str	r2, [r3, #4]
D:\Software\workspace_2\XMC4500_IO_Flat\Debug/../system/CMSIS/Infineon/XMC4500_series/Source/System_XMC4500.c:546
		 SysTick->VAL   = 0;                                         /* Load the SysTick Counter Value */
 8000dc6:	4b37      	ldr	r3, [pc, #220]	; (8000ea4 <SystemClockSetup+0x290>)
 8000dc8:	2200      	movs	r2, #0
 8000dca:	609a      	str	r2, [r3, #8]
D:\Software\workspace_2\XMC4500_IO_Flat\Debug/../system/CMSIS/Infineon/XMC4500_series/Source/System_XMC4500.c:547
		 SysTick->CTRL  = SysTick_CTRL_CLKSOURCE_Msk |
 8000dcc:	4b35      	ldr	r3, [pc, #212]	; (8000ea4 <SystemClockSetup+0x290>)
 8000dce:	2205      	movs	r2, #5
 8000dd0:	601a      	str	r2, [r3, #0]
D:\Software\workspace_2\XMC4500_IO_Flat\Debug/../system/CMSIS/Infineon/XMC4500_series/Source/System_XMC4500.c:550
										 SysTick_CTRL_ENABLE_Msk;                    /* Enable SysTick IRQ and SysTick Timer */
	
		 while (SysTick->VAL >= 100);								   /* wait for ~50s  */
 8000dd2:	e001      	b.n	8000dd8 <SystemClockSetup+0x1c4>
D:\Software\workspace_2\XMC4500_IO_Flat\Debug/../system/CMSIS/Infineon/XMC4500_series/Source/System_XMC4500.c:523
		   if ((SCU_PLL->PLLSTAT & SCU_PLL_PLLSTAT_VCOLOCK_Msk)==SCU_PLL_PLLSTAT_VCOLOCK_Msk)
		   		{
				/* Go back to the Main PLL */
				SCU_PLL->PLLCON0 &= ~SCU_PLL_PLLCON0_VCOBYP_Msk;
				}
				else return(0);
 8000dd4:	2300      	movs	r3, #0
 8000dd6:	e05a      	b.n	8000e8e <SystemClockSetup+0x27a>
D:\Software\workspace_2\XMC4500_IO_Flat\Debug/../system/CMSIS/Infineon/XMC4500_series/Source/System_XMC4500.c:550 (discriminator 1)
		 SysTick->LOAD  = ((1250+100) & SysTick_LOAD_RELOAD_Msk) - 1;/* set reload register */
		 SysTick->VAL   = 0;                                         /* Load the SysTick Counter Value */
		 SysTick->CTRL  = SysTick_CTRL_CLKSOURCE_Msk |
										 SysTick_CTRL_ENABLE_Msk;                    /* Enable SysTick IRQ and SysTick Timer */
	
		 while (SysTick->VAL >= 100);								   /* wait for ~50s  */
 8000dd8:	4b32      	ldr	r3, [pc, #200]	; (8000ea4 <SystemClockSetup+0x290>)
 8000dda:	689b      	ldr	r3, [r3, #8]
 8000ddc:	2b63      	cmp	r3, #99	; 0x63
 8000dde:	d8fb      	bhi.n	8000dd8 <SystemClockSetup+0x1c4>
D:\Software\workspace_2\XMC4500_IO_Flat\Debug/../system/CMSIS/Infineon/XMC4500_series/Source/System_XMC4500.c:551
		 SysTick->CTRL  &= ~SysTick_CTRL_ENABLE_Msk;                 /* Stop SysTick Timer */
 8000de0:	4a30      	ldr	r2, [pc, #192]	; (8000ea4 <SystemClockSetup+0x290>)
 8000de2:	4b30      	ldr	r3, [pc, #192]	; (8000ea4 <SystemClockSetup+0x290>)
 8000de4:	681b      	ldr	r3, [r3, #0]
 8000de6:	f023 0301 	bic.w	r3, r3, #1
 8000dea:	6013      	str	r3, [r2, #0]
D:\Software\workspace_2\XMC4500_IO_Flat\Debug/../system/CMSIS/Infineon/XMC4500_series/Source/System_XMC4500.c:559
	   /*********************************************************
	   here the ramp up of the system clock starts FSys < 60MHz
	   *********************************************************/
		if (CLOCK_FSYS > 60000000){
			 /*calulation for stepping*/
			 if (SCU_PLL_CLOCK_INPUT == SCU_CLOCK_CRYSTAL)VCO = (CLOCK_CRYSTAL_FREQUENCY/(SCU_PLL_PDIV+1))*(SCU_PLL_NDIV+1);
 8000dec:	4b30      	ldr	r3, [pc, #192]	; (8000eb0 <SystemClockSetup+0x29c>)
 8000dee:	607b      	str	r3, [r7, #4]
D:\Software\workspace_2\XMC4500_IO_Flat\Debug/../system/CMSIS/Infineon/XMC4500_series/Source/System_XMC4500.c:563
			 if ((SCU_PLL_CLOCK_INPUT == SCU_CLOCK_BACK_UP_AUTOMATIC) ||(SCU_PLL_CLOCK_INPUT == SCU_CLOCK_BACK_UP_FACTORY))
					VCO = (CLOCK_BACK_UP/(SCU_PLL_PDIV+1))*(SCU_PLL_NDIV+1);
	 
			 stepping_K2DIV = (VCO/60000000)-1;	
 8000df0:	687b      	ldr	r3, [r7, #4]
 8000df2:	0a1b      	lsrs	r3, r3, #8
 8000df4:	4a31      	ldr	r2, [pc, #196]	; (8000ebc <SystemClockSetup+0x2a8>)
 8000df6:	fba2 2303 	umull	r2, r3, r2, r3
 8000dfa:	0a9b      	lsrs	r3, r3, #10
 8000dfc:	3b01      	subs	r3, #1
 8000dfe:	603b      	str	r3, [r7, #0]
D:\Software\workspace_2\XMC4500_IO_Flat\Debug/../system/CMSIS/Infineon/XMC4500_series/Source/System_XMC4500.c:566

			 /* Setup devider settings for main PLL */
				SCU_PLL->PLLCON1 = ((SCU_PLL_K1DIV) | (SCU_PLL_NDIV<<8) | (stepping_K2DIV<<16) | (SCU_PLL_PDIV<<24));
 8000e00:	4925      	ldr	r1, [pc, #148]	; (8000e98 <SystemClockSetup+0x284>)
 8000e02:	683b      	ldr	r3, [r7, #0]
 8000e04:	041a      	lsls	r2, r3, #16
 8000e06:	4b2c      	ldr	r3, [pc, #176]	; (8000eb8 <SystemClockSetup+0x2a4>)
 8000e08:	4313      	orrs	r3, r2
 8000e0a:	608b      	str	r3, [r1, #8]
D:\Software\workspace_2\XMC4500_IO_Flat\Debug/../system/CMSIS/Infineon/XMC4500_series/Source/System_XMC4500.c:579
		 }

		 /*********************************************************/
		 /* Delay for next K2 step ~50s */
		 /*********************************************************/
	   SysTick->LOAD  = ((3000+100) & SysTick_LOAD_RELOAD_Msk) - 1;
 8000e0c:	4b25      	ldr	r3, [pc, #148]	; (8000ea4 <SystemClockSetup+0x290>)
 8000e0e:	f640 421b 	movw	r2, #3099	; 0xc1b
 8000e12:	605a      	str	r2, [r3, #4]
D:\Software\workspace_2\XMC4500_IO_Flat\Debug/../system/CMSIS/Infineon/XMC4500_series/Source/System_XMC4500.c:580
	   SysTick->VAL   = 0;                                         /* Load the SysTick Counter Value */
 8000e14:	4b23      	ldr	r3, [pc, #140]	; (8000ea4 <SystemClockSetup+0x290>)
 8000e16:	2200      	movs	r2, #0
 8000e18:	609a      	str	r2, [r3, #8]
D:\Software\workspace_2\XMC4500_IO_Flat\Debug/../system/CMSIS/Infineon/XMC4500_series/Source/System_XMC4500.c:581
	   SysTick->CTRL  = SysTick_CTRL_CLKSOURCE_Msk |
 8000e1a:	4b22      	ldr	r3, [pc, #136]	; (8000ea4 <SystemClockSetup+0x290>)
 8000e1c:	2205      	movs	r2, #5
 8000e1e:	601a      	str	r2, [r3, #0]
D:\Software\workspace_2\XMC4500_IO_Flat\Debug/../system/CMSIS/Infineon/XMC4500_series/Source/System_XMC4500.c:584
	                   SysTick_CTRL_ENABLE_Msk;                    /* Enable SysTick IRQ and SysTick Timer */
	
	   while (SysTick->VAL >= 100);								   /* wait for ~50s  */
 8000e20:	bf00      	nop
D:\Software\workspace_2\XMC4500_IO_Flat\Debug/../system/CMSIS/Infineon/XMC4500_series/Source/System_XMC4500.c:584 (discriminator 1)
 8000e22:	4b20      	ldr	r3, [pc, #128]	; (8000ea4 <SystemClockSetup+0x290>)
 8000e24:	689b      	ldr	r3, [r3, #8]
 8000e26:	2b63      	cmp	r3, #99	; 0x63
 8000e28:	d8fb      	bhi.n	8000e22 <SystemClockSetup+0x20e>
D:\Software\workspace_2\XMC4500_IO_Flat\Debug/../system/CMSIS/Infineon/XMC4500_series/Source/System_XMC4500.c:585
	   SysTick->CTRL  &= ~SysTick_CTRL_ENABLE_Msk;                 /* Stop SysTick Timer */
 8000e2a:	4a1e      	ldr	r2, [pc, #120]	; (8000ea4 <SystemClockSetup+0x290>)
 8000e2c:	4b1d      	ldr	r3, [pc, #116]	; (8000ea4 <SystemClockSetup+0x290>)
 8000e2e:	681b      	ldr	r3, [r3, #0]
 8000e30:	f023 0301 	bic.w	r3, r3, #1
 8000e34:	6013      	str	r3, [r2, #0]
D:\Software\workspace_2\XMC4500_IO_Flat\Debug/../system/CMSIS/Infineon/XMC4500_series/Source/System_XMC4500.c:593
   /*********************************************************
	   here the ramp up of the system clock starts FSys < 90MHz
	   *********************************************************/
		if (CLOCK_FSYS > 90000000){
			 /*calulation for stepping*/
			 if (SCU_PLL_CLOCK_INPUT == SCU_CLOCK_CRYSTAL)VCO = (CLOCK_CRYSTAL_FREQUENCY/(SCU_PLL_PDIV+1))*(SCU_PLL_NDIV+1);
 8000e36:	4b1e      	ldr	r3, [pc, #120]	; (8000eb0 <SystemClockSetup+0x29c>)
 8000e38:	607b      	str	r3, [r7, #4]
D:\Software\workspace_2\XMC4500_IO_Flat\Debug/../system/CMSIS/Infineon/XMC4500_series/Source/System_XMC4500.c:597
			 if ((SCU_PLL_CLOCK_INPUT == SCU_CLOCK_BACK_UP_AUTOMATIC) ||(SCU_PLL_CLOCK_INPUT == SCU_CLOCK_BACK_UP_FACTORY))
					VCO = (CLOCK_BACK_UP/(SCU_PLL_PDIV+1))*(SCU_PLL_NDIV+1);

			 stepping_K2DIV = (VCO/90000000)-1;			
 8000e3a:	687b      	ldr	r3, [r7, #4]
 8000e3c:	09db      	lsrs	r3, r3, #7
 8000e3e:	4a20      	ldr	r2, [pc, #128]	; (8000ec0 <SystemClockSetup+0x2ac>)
 8000e40:	fba2 2303 	umull	r2, r3, r2, r3
 8000e44:	0adb      	lsrs	r3, r3, #11
 8000e46:	3b01      	subs	r3, #1
 8000e48:	603b      	str	r3, [r7, #0]
D:\Software\workspace_2\XMC4500_IO_Flat\Debug/../system/CMSIS/Infineon/XMC4500_series/Source/System_XMC4500.c:600

			 /* Setup devider settings for main PLL */
				SCU_PLL->PLLCON1 = ((SCU_PLL_K1DIV) | (SCU_PLL_NDIV<<8) | (stepping_K2DIV<<16) | (SCU_PLL_PDIV<<24));
 8000e4a:	4913      	ldr	r1, [pc, #76]	; (8000e98 <SystemClockSetup+0x284>)
 8000e4c:	683b      	ldr	r3, [r7, #0]
 8000e4e:	041a      	lsls	r2, r3, #16
 8000e50:	4b19      	ldr	r3, [pc, #100]	; (8000eb8 <SystemClockSetup+0x2a4>)
 8000e52:	4313      	orrs	r3, r2
 8000e54:	608b      	str	r3, [r1, #8]
D:\Software\workspace_2\XMC4500_IO_Flat\Debug/../system/CMSIS/Infineon/XMC4500_series/Source/System_XMC4500.c:613
		 }
	
		 /*********************************************************/
		 /* Delay for next K2 step ~50s */
		 /*********************************************************/
	   SysTick->LOAD  = ((4800+100) & SysTick_LOAD_RELOAD_Msk) - 1;
 8000e56:	4b13      	ldr	r3, [pc, #76]	; (8000ea4 <SystemClockSetup+0x290>)
 8000e58:	f241 3223 	movw	r2, #4899	; 0x1323
 8000e5c:	605a      	str	r2, [r3, #4]
D:\Software\workspace_2\XMC4500_IO_Flat\Debug/../system/CMSIS/Infineon/XMC4500_series/Source/System_XMC4500.c:614
	   SysTick->VAL   = 0;                                         /* Load the SysTick Counter Value */
 8000e5e:	4b11      	ldr	r3, [pc, #68]	; (8000ea4 <SystemClockSetup+0x290>)
 8000e60:	2200      	movs	r2, #0
 8000e62:	609a      	str	r2, [r3, #8]
D:\Software\workspace_2\XMC4500_IO_Flat\Debug/../system/CMSIS/Infineon/XMC4500_series/Source/System_XMC4500.c:615
	   SysTick->CTRL  = SysTick_CTRL_CLKSOURCE_Msk |
 8000e64:	4b0f      	ldr	r3, [pc, #60]	; (8000ea4 <SystemClockSetup+0x290>)
 8000e66:	2205      	movs	r2, #5
 8000e68:	601a      	str	r2, [r3, #0]
D:\Software\workspace_2\XMC4500_IO_Flat\Debug/../system/CMSIS/Infineon/XMC4500_series/Source/System_XMC4500.c:618
	                   SysTick_CTRL_ENABLE_Msk;                    /* Enable SysTick IRQ and SysTick Timer */
	
	   while (SysTick->VAL >= 100);								   /* wait for ~50s  */
 8000e6a:	bf00      	nop
D:\Software\workspace_2\XMC4500_IO_Flat\Debug/../system/CMSIS/Infineon/XMC4500_series/Source/System_XMC4500.c:618 (discriminator 1)
 8000e6c:	4b0d      	ldr	r3, [pc, #52]	; (8000ea4 <SystemClockSetup+0x290>)
 8000e6e:	689b      	ldr	r3, [r3, #8]
 8000e70:	2b63      	cmp	r3, #99	; 0x63
 8000e72:	d8fb      	bhi.n	8000e6c <SystemClockSetup+0x258>
D:\Software\workspace_2\XMC4500_IO_Flat\Debug/../system/CMSIS/Infineon/XMC4500_series/Source/System_XMC4500.c:619
	   SysTick->CTRL  &= ~SysTick_CTRL_ENABLE_Msk;                 /* Stop SysTick Timer */
 8000e74:	4a0b      	ldr	r2, [pc, #44]	; (8000ea4 <SystemClockSetup+0x290>)
 8000e76:	4b0b      	ldr	r3, [pc, #44]	; (8000ea4 <SystemClockSetup+0x290>)
 8000e78:	681b      	ldr	r3, [r3, #0]
 8000e7a:	f023 0301 	bic.w	r3, r3, #1
 8000e7e:	6013      	str	r3, [r2, #0]
D:\Software\workspace_2\XMC4500_IO_Flat\Debug/../system/CMSIS/Infineon/XMC4500_series/Source/System_XMC4500.c:623
	   /********************************/
	
	   /* Setup devider settings for main PLL */
	   SCU_PLL->PLLCON1 = ((SCU_PLL_K1DIV) | (SCU_PLL_NDIV<<8) | (SCU_PLL_K2DIV<<16) | (SCU_PLL_PDIV<<24));
 8000e80:	4b05      	ldr	r3, [pc, #20]	; (8000e98 <SystemClockSetup+0x284>)
 8000e82:	4a10      	ldr	r2, [pc, #64]	; (8000ec4 <SystemClockSetup+0x2b0>)
 8000e84:	609a      	str	r2, [r3, #8]
D:\Software\workspace_2\XMC4500_IO_Flat\Debug/../system/CMSIS/Infineon/XMC4500_series/Source/System_XMC4500.c:625
	
	   SCU_TRAP->TRAPCLR = SCU_TRAP_TRAPCLR_SOSCWDGT_Msk | SCU_TRAP_TRAPCLR_SVCOLCKT_Msk;  /* clear request for System OCS Watchdog Trap and System VCO Lock Trap  */
 8000e86:	4b10      	ldr	r3, [pc, #64]	; (8000ec8 <SystemClockSetup+0x2b4>)
 8000e88:	2205      	movs	r2, #5
 8000e8a:	60da      	str	r2, [r3, #12]
D:\Software\workspace_2\XMC4500_IO_Flat\Debug/../system/CMSIS/Infineon/XMC4500_series/Source/System_XMC4500.c:628
	}
 }/* end this weak function enables DAVE3 clock App usage */	
   return(1);
 8000e8c:	2301      	movs	r3, #1
D:\Software\workspace_2\XMC4500_IO_Flat\Debug/../system/CMSIS/Infineon/XMC4500_series/Source/System_XMC4500.c:630

}
 8000e8e:	4618      	mov	r0, r3
 8000e90:	3708      	adds	r7, #8
 8000e92:	46bd      	mov	sp, r7
 8000e94:	bd80      	pop	{r7, pc}
 8000e96:	bf00      	nop
 8000e98:	50004710 	.word	0x50004710
 8000e9c:	00010002 	.word	0x00010002
 8000ea0:	50004700 	.word	0x50004700
 8000ea4:	e000e010 	.word	0xe000e010
 8000ea8:	004c4ba3 	.word	0x004c4ba3
 8000eac:	50004600 	.word	0x50004600
 8000eb0:	1c9c3800 	.word	0x1c9c3800
 8000eb4:	165e9f81 	.word	0x165e9f81
 8000eb8:	01004f01 	.word	0x01004f01
 8000ebc:	011e54c7 	.word	0x011e54c7
 8000ec0:	00bee32f 	.word	0x00bee32f
 8000ec4:	01034f01 	.word	0x01034f01
 8000ec8:	50004160 	.word	0x50004160

08000ecc <_open>:
_open():
D:\Software\workspace_2\XMC4500_IO_Flat\Debug/../system/CMSIS/Infineon/Lib/System_LibcStubs.c:58
/* ========================================================================= */
/*
 * File open
 */
__attribute__((weak)) int _open(const char *name, int flags, int mode)
{
 8000ecc:	b480      	push	{r7}
 8000ece:	b085      	sub	sp, #20
 8000ed0:	af00      	add	r7, sp, #0
 8000ed2:	60f8      	str	r0, [r7, #12]
 8000ed4:	60b9      	str	r1, [r7, #8]
 8000ed6:	607a      	str	r2, [r7, #4]
D:\Software\workspace_2\XMC4500_IO_Flat\Debug/../system/CMSIS/Infineon/Lib/System_LibcStubs.c:61
 flags = flags;
 mode = mode;
 return -1;
 8000ed8:	f04f 33ff 	mov.w	r3, #4294967295
D:\Software\workspace_2\XMC4500_IO_Flat\Debug/../system/CMSIS/Infineon/Lib/System_LibcStubs.c:62
}
 8000edc:	4618      	mov	r0, r3
 8000ede:	3714      	adds	r7, #20
 8000ee0:	46bd      	mov	sp, r7
 8000ee2:	bc80      	pop	{r7}
 8000ee4:	4770      	bx	lr
 8000ee6:	bf00      	nop

08000ee8 <_lseek>:
_lseek():
D:\Software\workspace_2\XMC4500_IO_Flat\Debug/../system/CMSIS/Infineon/Lib/System_LibcStubs.c:68

/*
 * File position seek
 */
__attribute__((weak)) int _lseek(int file, int offset, int whence)
{
 8000ee8:	b480      	push	{r7}
 8000eea:	b085      	sub	sp, #20
 8000eec:	af00      	add	r7, sp, #0
 8000eee:	60f8      	str	r0, [r7, #12]
 8000ef0:	60b9      	str	r1, [r7, #8]
 8000ef2:	607a      	str	r2, [r7, #4]
D:\Software\workspace_2\XMC4500_IO_Flat\Debug/../system/CMSIS/Infineon/Lib/System_LibcStubs.c:72
 file = file;
 offset = offset;
 whence = whence;
 return -1;
 8000ef4:	f04f 33ff 	mov.w	r3, #4294967295
D:\Software\workspace_2\XMC4500_IO_Flat\Debug/../system/CMSIS/Infineon/Lib/System_LibcStubs.c:73
}
 8000ef8:	4618      	mov	r0, r3
 8000efa:	3714      	adds	r7, #20
 8000efc:	46bd      	mov	sp, r7
 8000efe:	bc80      	pop	{r7}
 8000f00:	4770      	bx	lr
 8000f02:	bf00      	nop

08000f04 <_read>:
_read():
D:\Software\workspace_2\XMC4500_IO_Flat\Debug/../system/CMSIS/Infineon/Lib/System_LibcStubs.c:79

/*
 * File read
 */
__attribute__((weak)) int _read(int file, char *ptr, int len)
{
 8000f04:	b480      	push	{r7}
 8000f06:	b085      	sub	sp, #20
 8000f08:	af00      	add	r7, sp, #0
 8000f0a:	60f8      	str	r0, [r7, #12]
 8000f0c:	60b9      	str	r1, [r7, #8]
 8000f0e:	607a      	str	r2, [r7, #4]
D:\Software\workspace_2\XMC4500_IO_Flat\Debug/../system/CMSIS/Infineon/Lib/System_LibcStubs.c:82
 file = file;
 len  = len;
 return 0;
 8000f10:	2300      	movs	r3, #0
D:\Software\workspace_2\XMC4500_IO_Flat\Debug/../system/CMSIS/Infineon/Lib/System_LibcStubs.c:83
}
 8000f12:	4618      	mov	r0, r3
 8000f14:	3714      	adds	r7, #20
 8000f16:	46bd      	mov	sp, r7
 8000f18:	bc80      	pop	{r7}
 8000f1a:	4770      	bx	lr

08000f1c <_write>:
_write():
D:\Software\workspace_2\XMC4500_IO_Flat\Debug/../system/CMSIS/Infineon/Lib/System_LibcStubs.c:89

/*
 * File write
 */
__attribute__((weak)) int _write(int file, char *buf, int nbytes)
{
 8000f1c:	b480      	push	{r7}
 8000f1e:	b085      	sub	sp, #20
 8000f20:	af00      	add	r7, sp, #0
 8000f22:	60f8      	str	r0, [r7, #12]
 8000f24:	60b9      	str	r1, [r7, #8]
 8000f26:	607a      	str	r2, [r7, #4]
D:\Software\workspace_2\XMC4500_IO_Flat\Debug/../system/CMSIS/Infineon/Lib/System_LibcStubs.c:90
 return -1;
 8000f28:	f04f 33ff 	mov.w	r3, #4294967295
D:\Software\workspace_2\XMC4500_IO_Flat\Debug/../system/CMSIS/Infineon/Lib/System_LibcStubs.c:91
}
 8000f2c:	4618      	mov	r0, r3
 8000f2e:	3714      	adds	r7, #20
 8000f30:	46bd      	mov	sp, r7
 8000f32:	bc80      	pop	{r7}
 8000f34:	4770      	bx	lr
 8000f36:	bf00      	nop

08000f38 <_close>:
_close():
D:\Software\workspace_2\XMC4500_IO_Flat\Debug/../system/CMSIS/Infineon/Lib/System_LibcStubs.c:97

/*
 * File close
 */
__attribute__((weak)) int _close(void)
{
 8000f38:	b480      	push	{r7}
 8000f3a:	af00      	add	r7, sp, #0
D:\Software\workspace_2\XMC4500_IO_Flat\Debug/../system/CMSIS/Infineon/Lib/System_LibcStubs.c:98
 return -1;
 8000f3c:	f04f 33ff 	mov.w	r3, #4294967295
D:\Software\workspace_2\XMC4500_IO_Flat\Debug/../system/CMSIS/Infineon/Lib/System_LibcStubs.c:99
}
 8000f40:	4618      	mov	r0, r3
 8000f42:	46bd      	mov	sp, r7
 8000f44:	bc80      	pop	{r7}
 8000f46:	4770      	bx	lr

08000f48 <_fstat>:
_fstat():
D:\Software\workspace_2\XMC4500_IO_Flat\Debug/../system/CMSIS/Infineon/Lib/System_LibcStubs.c:105

/*
 * File status
 */
__attribute__((weak)) int _fstat(int file, struct stat *st)
{
 8000f48:	b480      	push	{r7}
 8000f4a:	b083      	sub	sp, #12
 8000f4c:	af00      	add	r7, sp, #0
 8000f4e:	6078      	str	r0, [r7, #4]
 8000f50:	6039      	str	r1, [r7, #0]
D:\Software\workspace_2\XMC4500_IO_Flat\Debug/../system/CMSIS/Infineon/Lib/System_LibcStubs.c:107
 file = file;
 if(st)
 8000f52:	683b      	ldr	r3, [r7, #0]
 8000f54:	2b00      	cmp	r3, #0
 8000f56:	d002      	beq.n	8000f5e <_fstat+0x16>
D:\Software\workspace_2\XMC4500_IO_Flat\Debug/../system/CMSIS/Infineon/Lib/System_LibcStubs.c:108
  return -1;
 8000f58:	f04f 33ff 	mov.w	r3, #4294967295
 8000f5c:	e001      	b.n	8000f62 <_fstat+0x1a>
D:\Software\workspace_2\XMC4500_IO_Flat\Debug/../system/CMSIS/Infineon/Lib/System_LibcStubs.c:110
 else
  return -2;
 8000f5e:	f06f 0301 	mvn.w	r3, #1
D:\Software\workspace_2\XMC4500_IO_Flat\Debug/../system/CMSIS/Infineon/Lib/System_LibcStubs.c:111
}
 8000f62:	4618      	mov	r0, r3
 8000f64:	370c      	adds	r7, #12
 8000f66:	46bd      	mov	sp, r7
 8000f68:	bc80      	pop	{r7}
 8000f6a:	4770      	bx	lr

08000f6c <_link>:
_link():
D:\Software\workspace_2\XMC4500_IO_Flat\Debug/../system/CMSIS/Infineon/Lib/System_LibcStubs.c:116
/*
 * File linking
 */
__attribute__((weak)) int _link (char *old, char *new)
{
 8000f6c:	b480      	push	{r7}
 8000f6e:	b083      	sub	sp, #12
 8000f70:	af00      	add	r7, sp, #0
 8000f72:	6078      	str	r0, [r7, #4]
 8000f74:	6039      	str	r1, [r7, #0]
D:\Software\workspace_2\XMC4500_IO_Flat\Debug/../system/CMSIS/Infineon/Lib/System_LibcStubs.c:117
 if (old == new)
 8000f76:	687a      	ldr	r2, [r7, #4]
 8000f78:	683b      	ldr	r3, [r7, #0]
 8000f7a:	429a      	cmp	r2, r3
 8000f7c:	d102      	bne.n	8000f84 <_link+0x18>
D:\Software\workspace_2\XMC4500_IO_Flat\Debug/../system/CMSIS/Infineon/Lib/System_LibcStubs.c:118
  return -1;
 8000f7e:	f04f 33ff 	mov.w	r3, #4294967295
 8000f82:	e001      	b.n	8000f88 <_link+0x1c>
D:\Software\workspace_2\XMC4500_IO_Flat\Debug/../system/CMSIS/Infineon/Lib/System_LibcStubs.c:120
 else
  return -2;
 8000f84:	f06f 0301 	mvn.w	r3, #1
D:\Software\workspace_2\XMC4500_IO_Flat\Debug/../system/CMSIS/Infineon/Lib/System_LibcStubs.c:121
}
 8000f88:	4618      	mov	r0, r3
 8000f8a:	370c      	adds	r7, #12
 8000f8c:	46bd      	mov	sp, r7
 8000f8e:	bc80      	pop	{r7}
 8000f90:	4770      	bx	lr
 8000f92:	bf00      	nop

08000f94 <_unlink>:
_unlink():
D:\Software\workspace_2\XMC4500_IO_Flat\Debug/../system/CMSIS/Infineon/Lib/System_LibcStubs.c:127

/*
 * Unlinking directory entry
 */
__attribute__((weak)) int _unlink(char *name)
{
 8000f94:	b480      	push	{r7}
 8000f96:	b083      	sub	sp, #12
 8000f98:	af00      	add	r7, sp, #0
 8000f9a:	6078      	str	r0, [r7, #4]
D:\Software\workspace_2\XMC4500_IO_Flat\Debug/../system/CMSIS/Infineon/Lib/System_LibcStubs.c:128
 return -1;
 8000f9c:	f04f 33ff 	mov.w	r3, #4294967295
D:\Software\workspace_2\XMC4500_IO_Flat\Debug/../system/CMSIS/Infineon/Lib/System_LibcStubs.c:129
}
 8000fa0:	4618      	mov	r0, r3
 8000fa2:	370c      	adds	r7, #12
 8000fa4:	46bd      	mov	sp, r7
 8000fa6:	bc80      	pop	{r7}
 8000fa8:	4770      	bx	lr
 8000faa:	bf00      	nop

08000fac <_sbrk>:
_sbrk():
D:\Software\workspace_2\XMC4500_IO_Flat\Debug/../system/CMSIS/Infineon/Lib/System_LibcStubs.c:137
/* ========================================================================= */
/*
 * Heap break (position)
 */
__attribute__((weak)) void *_sbrk(int RequestedSize)
{
 8000fac:	b480      	push	{r7}
 8000fae:	b087      	sub	sp, #28
 8000fb0:	af00      	add	r7, sp, #0
 8000fb2:	6078      	str	r0, [r7, #4]
D:\Software\workspace_2\XMC4500_IO_Flat\Debug/../system/CMSIS/Infineon/Lib/System_LibcStubs.c:148
 unsigned int  HeapSize;
 static unsigned char *HeapBound;
 static unsigned char * heap= (unsigned char *)NULL;


 HeapSize   = (unsigned int)(&Heap_Bank1_Size);
 8000fb4:	4b15      	ldr	r3, [pc, #84]	; (800100c <_sbrk+0x60>)
 8000fb6:	617b      	str	r3, [r7, #20]
D:\Software\workspace_2\XMC4500_IO_Flat\Debug/../system/CMSIS/Infineon/Lib/System_LibcStubs.c:154

 /*
  * If this is the first time malloc() was invoked, we start with the
  * begining of the heap.
  */
 if(heap == (unsigned char *)NULL)
 8000fb8:	4b15      	ldr	r3, [pc, #84]	; (8001010 <_sbrk+0x64>)
 8000fba:	681b      	ldr	r3, [r3, #0]
 8000fbc:	2b00      	cmp	r3, #0
 8000fbe:	d108      	bne.n	8000fd2 <_sbrk+0x26>
D:\Software\workspace_2\XMC4500_IO_Flat\Debug/../system/CMSIS/Infineon/Lib/System_LibcStubs.c:156
  {
   heap = (unsigned char *)&Heap_Bank1_Start;
 8000fc0:	4b13      	ldr	r3, [pc, #76]	; (8001010 <_sbrk+0x64>)
 8000fc2:	4a14      	ldr	r2, [pc, #80]	; (8001014 <_sbrk+0x68>)
 8000fc4:	601a      	str	r2, [r3, #0]
D:\Software\workspace_2\XMC4500_IO_Flat\Debug/../system/CMSIS/Infineon/Lib/System_LibcStubs.c:157
   HeapBound  = (unsigned char *) (heap + HeapSize);
 8000fc6:	4b12      	ldr	r3, [pc, #72]	; (8001010 <_sbrk+0x64>)
 8000fc8:	681a      	ldr	r2, [r3, #0]
 8000fca:	697b      	ldr	r3, [r7, #20]
 8000fcc:	4413      	add	r3, r2
 8000fce:	4a12      	ldr	r2, [pc, #72]	; (8001018 <_sbrk+0x6c>)
 8000fd0:	6013      	str	r3, [r2, #0]
D:\Software\workspace_2\XMC4500_IO_Flat\Debug/../system/CMSIS/Infineon/Lib/System_LibcStubs.c:163
  }

 /* Super duper algo to find out if we have memory for the latest request */
 /* Given conditions are: */
 /* 1. Latest break */
 CurrBreak = heap;
 8000fd2:	4b0f      	ldr	r3, [pc, #60]	; (8001010 <_sbrk+0x64>)
 8000fd4:	681b      	ldr	r3, [r3, #0]
 8000fd6:	613b      	str	r3, [r7, #16]
D:\Software\workspace_2\XMC4500_IO_Flat\Debug/../system/CMSIS/Infineon/Lib/System_LibcStubs.c:166

 /* And 2. Potential break based on requested size */
 NextBreak = (unsigned char *)( (((unsigned int)(heap)) + RequestedSize + 7)
 8000fd8:	4b0d      	ldr	r3, [pc, #52]	; (8001010 <_sbrk+0x64>)
 8000fda:	681b      	ldr	r3, [r3, #0]
 8000fdc:	461a      	mov	r2, r3
 8000fde:	687b      	ldr	r3, [r7, #4]
 8000fe0:	4413      	add	r3, r2
 8000fe2:	3307      	adds	r3, #7
D:\Software\workspace_2\XMC4500_IO_Flat\Debug/../system/CMSIS/Infineon/Lib/System_LibcStubs.c:167
                                          & 0xFFFFFFF8);
 8000fe4:	f023 0307 	bic.w	r3, r3, #7
D:\Software\workspace_2\XMC4500_IO_Flat\Debug/../system/CMSIS/Infineon/Lib/System_LibcStubs.c:166
 /* Given conditions are: */
 /* 1. Latest break */
 CurrBreak = heap;

 /* And 2. Potential break based on requested size */
 NextBreak = (unsigned char *)( (((unsigned int)(heap)) + RequestedSize + 7)
 8000fe8:	60fb      	str	r3, [r7, #12]
D:\Software\workspace_2\XMC4500_IO_Flat\Debug/../system/CMSIS/Infineon/Lib/System_LibcStubs.c:170
                                          & 0xFFFFFFF8);

 /* Return no memory condition if we sense we are crossing the limit */
 if (NextBreak >=  HeapBound )
 8000fea:	4b0b      	ldr	r3, [pc, #44]	; (8001018 <_sbrk+0x6c>)
 8000fec:	681b      	ldr	r3, [r3, #0]
 8000fee:	68fa      	ldr	r2, [r7, #12]
 8000ff0:	429a      	cmp	r2, r3
 8000ff2:	d301      	bcc.n	8000ff8 <_sbrk+0x4c>
D:\Software\workspace_2\XMC4500_IO_Flat\Debug/../system/CMSIS/Infineon/Lib/System_LibcStubs.c:171
  return ((unsigned char *)NULL);
 8000ff4:	2300      	movs	r3, #0
 8000ff6:	e003      	b.n	8001000 <_sbrk+0x54>
D:\Software\workspace_2\XMC4500_IO_Flat\Debug/../system/CMSIS/Infineon/Lib/System_LibcStubs.c:174
 else
 {
  heap = NextBreak;
 8000ff8:	4a05      	ldr	r2, [pc, #20]	; (8001010 <_sbrk+0x64>)
 8000ffa:	68fb      	ldr	r3, [r7, #12]
 8000ffc:	6013      	str	r3, [r2, #0]
D:\Software\workspace_2\XMC4500_IO_Flat\Debug/../system/CMSIS/Infineon/Lib/System_LibcStubs.c:175
  return CurrBreak;
 8000ffe:	693b      	ldr	r3, [r7, #16]
D:\Software\workspace_2\XMC4500_IO_Flat\Debug/../system/CMSIS/Infineon/Lib/System_LibcStubs.c:177
 }
}
 8001000:	4618      	mov	r0, r3
 8001002:	371c      	adds	r7, #28
 8001004:	46bd      	mov	sp, r7
 8001006:	bc80      	pop	{r7}
 8001008:	4770      	bx	lr
 800100a:	bf00      	nop
 800100c:	0000f788 	.word	0x0000f788
 8001010:	20000804 	.word	0x20000804
 8001014:	20000878 	.word	0x20000878
 8001018:	20000808 	.word	0x20000808

0800101c <_times>:
_times():
D:\Software\workspace_2\XMC4500_IO_Flat\Debug/../system/CMSIS/Infineon/Lib/System_LibcStubs.c:186
/* ========================================================================= */
/*
 * Process timing information
 */
__attribute__((weak)) int _times(struct tms *buf)
{
 800101c:	b480      	push	{r7}
 800101e:	b083      	sub	sp, #12
 8001020:	af00      	add	r7, sp, #0
 8001022:	6078      	str	r0, [r7, #4]
D:\Software\workspace_2\XMC4500_IO_Flat\Debug/../system/CMSIS/Infineon/Lib/System_LibcStubs.c:187
 return -1;
 8001024:	f04f 33ff 	mov.w	r3, #4294967295
D:\Software\workspace_2\XMC4500_IO_Flat\Debug/../system/CMSIS/Infineon/Lib/System_LibcStubs.c:188
}
 8001028:	4618      	mov	r0, r3
 800102a:	370c      	adds	r7, #12
 800102c:	46bd      	mov	sp, r7
 800102e:	bc80      	pop	{r7}
 8001030:	4770      	bx	lr
 8001032:	bf00      	nop

08001034 <_wait>:
_wait():
D:\Software\workspace_2\XMC4500_IO_Flat\Debug/../system/CMSIS/Infineon/Lib/System_LibcStubs.c:193
/*
 * Waiting for a child process to complete
 */
__attribute__((weak)) int _wait(int *status)
{
 8001034:	b480      	push	{r7}
 8001036:	b083      	sub	sp, #12
 8001038:	af00      	add	r7, sp, #0
 800103a:	6078      	str	r0, [r7, #4]
D:\Software\workspace_2\XMC4500_IO_Flat\Debug/../system/CMSIS/Infineon/Lib/System_LibcStubs.c:194
 return -1;
 800103c:	f04f 33ff 	mov.w	r3, #4294967295
D:\Software\workspace_2\XMC4500_IO_Flat\Debug/../system/CMSIS/Infineon/Lib/System_LibcStubs.c:195
}
 8001040:	4618      	mov	r0, r3
 8001042:	370c      	adds	r7, #12
 8001044:	46bd      	mov	sp, r7
 8001046:	bc80      	pop	{r7}
 8001048:	4770      	bx	lr
 800104a:	bf00      	nop

0800104c <_kill>:
_kill():
D:\Software\workspace_2\XMC4500_IO_Flat\Debug/../system/CMSIS/Infineon/Lib/System_LibcStubs.c:201

/*
 * Kill a process
 */
__attribute__((weak)) int _kill(int pid,int sig)
{
 800104c:	b480      	push	{r7}
 800104e:	b083      	sub	sp, #12
 8001050:	af00      	add	r7, sp, #0
 8001052:	6078      	str	r0, [r7, #4]
 8001054:	6039      	str	r1, [r7, #0]
D:\Software\workspace_2\XMC4500_IO_Flat\Debug/../system/CMSIS/Infineon/Lib/System_LibcStubs.c:204
 pid = pid;
 sig = sig;
 return -1;
 8001056:	f04f 33ff 	mov.w	r3, #4294967295
D:\Software\workspace_2\XMC4500_IO_Flat\Debug/../system/CMSIS/Infineon/Lib/System_LibcStubs.c:205
}
 800105a:	4618      	mov	r0, r3
 800105c:	370c      	adds	r7, #12
 800105e:	46bd      	mov	sp, r7
 8001060:	bc80      	pop	{r7}
 8001062:	4770      	bx	lr

08001064 <_fork>:
_fork():
D:\Software\workspace_2\XMC4500_IO_Flat\Debug/../system/CMSIS/Infineon/Lib/System_LibcStubs.c:211

/*
 * Forking a child process
 */
__attribute__((weak)) int _fork(void)
{
 8001064:	b480      	push	{r7}
 8001066:	af00      	add	r7, sp, #0
D:\Software\workspace_2\XMC4500_IO_Flat\Debug/../system/CMSIS/Infineon/Lib/System_LibcStubs.c:212
 return -1;
 8001068:	f04f 33ff 	mov.w	r3, #4294967295
D:\Software\workspace_2\XMC4500_IO_Flat\Debug/../system/CMSIS/Infineon/Lib/System_LibcStubs.c:213
}
 800106c:	4618      	mov	r0, r3
 800106e:	46bd      	mov	sp, r7
 8001070:	bc80      	pop	{r7}
 8001072:	4770      	bx	lr

08001074 <_getpid>:
_getpid():
D:\Software\workspace_2\XMC4500_IO_Flat\Debug/../system/CMSIS/Infineon/Lib/System_LibcStubs.c:219

/*
 * Process ID
 */
__attribute__((weak)) int _getpid(void)
{
 8001074:	b480      	push	{r7}
 8001076:	af00      	add	r7, sp, #0
D:\Software\workspace_2\XMC4500_IO_Flat\Debug/../system/CMSIS/Infineon/Lib/System_LibcStubs.c:220
 return -1;
 8001078:	f04f 33ff 	mov.w	r3, #4294967295
D:\Software\workspace_2\XMC4500_IO_Flat\Debug/../system/CMSIS/Infineon/Lib/System_LibcStubs.c:221
}
 800107c:	4618      	mov	r0, r3
 800107e:	46bd      	mov	sp, r7
 8001080:	bc80      	pop	{r7}
 8001082:	4770      	bx	lr

08001084 <_exit>:
_exit():
D:\Software\workspace_2\XMC4500_IO_Flat\Debug/../system/CMSIS/Infineon/Lib/System_LibcStubs.c:227

/*
 * Program/process exit
 */
__attribute__((weak)) void _exit(int rc)
{
 8001084:	b480      	push	{r7}
 8001086:	b083      	sub	sp, #12
 8001088:	af00      	add	r7, sp, #0
 800108a:	6078      	str	r0, [r7, #4]
D:\Software\workspace_2\XMC4500_IO_Flat\Debug/../system/CMSIS/Infineon/Lib/System_LibcStubs.c:229 (discriminator 1)
 rc = rc;
 while(1){}
 800108c:	e7fe      	b.n	800108c <_exit+0x8>
 800108e:	bf00      	nop

08001090 <_init>:
_init():
D:\Software\workspace_2\XMC4500_IO_Flat\Debug/../system/CMSIS/Infineon/Lib/System_LibcStubs.c:234
}

/* Init */
__attribute__((weak)) void _init(void)
{}
 8001090:	b480      	push	{r7}
 8001092:	af00      	add	r7, sp, #0
 8001094:	bf00      	nop
 8001096:	46bd      	mov	sp, r7
 8001098:	bc80      	pop	{r7}
 800109a:	4770      	bx	lr

0800109c <_isatty>:
_isatty():
D:\Software\workspace_2\XMC4500_IO_Flat\Debug/../system/CMSIS/Infineon/Lib/System_LibcStubs.c:244

/*
 * Terminal type evaluation
 */
__attribute__((weak)) int _isatty(int file)
{
 800109c:	b480      	push	{r7}
 800109e:	b083      	sub	sp, #12
 80010a0:	af00      	add	r7, sp, #0
 80010a2:	6078      	str	r0, [r7, #4]
D:\Software\workspace_2\XMC4500_IO_Flat\Debug/../system/CMSIS/Infineon/Lib/System_LibcStubs.c:246
 file = file;
 return -1;
 80010a4:	f04f 33ff 	mov.w	r3, #4294967295
D:\Software\workspace_2\XMC4500_IO_Flat\Debug/../system/CMSIS/Infineon/Lib/System_LibcStubs.c:247
}
 80010a8:	4618      	mov	r0, r3
 80010aa:	370c      	adds	r7, #12
 80010ac:	46bd      	mov	sp, r7
 80010ae:	bc80      	pop	{r7}
 80010b0:	4770      	bx	lr
 80010b2:	bf00      	nop

080010b4 <NVIC_SetPriority>:
NVIC_SetPriority():
D:\Software\workspace_2\XMC4500_IO_Flat\system\CMSIS\Include/core_cm4.h:1551

    \param [in]      IRQn  Interrupt number.
    \param [in]  priority  Priority to set.
 */
__STATIC_INLINE void NVIC_SetPriority(IRQn_Type IRQn, uint32_t priority)
{
 80010b4:	b480      	push	{r7}
 80010b6:	b083      	sub	sp, #12
 80010b8:	af00      	add	r7, sp, #0
 80010ba:	4603      	mov	r3, r0
 80010bc:	6039      	str	r1, [r7, #0]
 80010be:	71fb      	strb	r3, [r7, #7]
D:\Software\workspace_2\XMC4500_IO_Flat\system\CMSIS\Include/core_cm4.h:1552
  if(IRQn < 0) {
 80010c0:	f997 3007 	ldrsb.w	r3, [r7, #7]
 80010c4:	2b00      	cmp	r3, #0
 80010c6:	da0b      	bge.n	80010e0 <NVIC_SetPriority+0x2c>
D:\Software\workspace_2\XMC4500_IO_Flat\system\CMSIS\Include/core_cm4.h:1553
    SCB->SHP[((uint32_t)(IRQn) & 0xF)-4] = ((priority << (8 - __NVIC_PRIO_BITS)) & 0xff); } /* set Priority for Cortex-M  System Interrupts */
 80010c8:	490d      	ldr	r1, [pc, #52]	; (8001100 <NVIC_SetPriority+0x4c>)
 80010ca:	79fb      	ldrb	r3, [r7, #7]
 80010cc:	f003 030f 	and.w	r3, r3, #15
 80010d0:	3b04      	subs	r3, #4
 80010d2:	683a      	ldr	r2, [r7, #0]
 80010d4:	b2d2      	uxtb	r2, r2
 80010d6:	0092      	lsls	r2, r2, #2
 80010d8:	b2d2      	uxtb	r2, r2
 80010da:	440b      	add	r3, r1
 80010dc:	761a      	strb	r2, [r3, #24]
D:\Software\workspace_2\XMC4500_IO_Flat\system\CMSIS\Include/core_cm4.h:1556
  else {
    NVIC->IP[(uint32_t)(IRQn)] = ((priority << (8 - __NVIC_PRIO_BITS)) & 0xff);    }        /* set Priority for device specific Interrupts  */
}
 80010de:	e009      	b.n	80010f4 <NVIC_SetPriority+0x40>
D:\Software\workspace_2\XMC4500_IO_Flat\system\CMSIS\Include/core_cm4.h:1555
__STATIC_INLINE void NVIC_SetPriority(IRQn_Type IRQn, uint32_t priority)
{
  if(IRQn < 0) {
    SCB->SHP[((uint32_t)(IRQn) & 0xF)-4] = ((priority << (8 - __NVIC_PRIO_BITS)) & 0xff); } /* set Priority for Cortex-M  System Interrupts */
  else {
    NVIC->IP[(uint32_t)(IRQn)] = ((priority << (8 - __NVIC_PRIO_BITS)) & 0xff);    }        /* set Priority for device specific Interrupts  */
 80010e0:	4908      	ldr	r1, [pc, #32]	; (8001104 <NVIC_SetPriority+0x50>)
 80010e2:	f997 3007 	ldrsb.w	r3, [r7, #7]
 80010e6:	683a      	ldr	r2, [r7, #0]
 80010e8:	b2d2      	uxtb	r2, r2
 80010ea:	0092      	lsls	r2, r2, #2
 80010ec:	b2d2      	uxtb	r2, r2
 80010ee:	440b      	add	r3, r1
 80010f0:	f883 2300 	strb.w	r2, [r3, #768]	; 0x300
D:\Software\workspace_2\XMC4500_IO_Flat\system\CMSIS\Include/core_cm4.h:1556
}
 80010f4:	bf00      	nop
 80010f6:	370c      	adds	r7, #12
 80010f8:	46bd      	mov	sp, r7
 80010fa:	bc80      	pop	{r7}
 80010fc:	4770      	bx	lr
 80010fe:	bf00      	nop
 8001100:	e000ed00 	.word	0xe000ed00
 8001104:	e000e100 	.word	0xe000e100

08001108 <SysTick_Config>:
SysTick_Config():
D:\Software\workspace_2\XMC4500_IO_Flat\system\CMSIS\Include/core_cm4.h:1678
    function <b>SysTick_Config</b> is not included. In this case, the file <b><i>device</i>.h</b>
    must contain a vendor-specific implementation of this function.

 */
__STATIC_INLINE uint32_t SysTick_Config(uint32_t ticks)
{
 8001108:	b580      	push	{r7, lr}
 800110a:	b082      	sub	sp, #8
 800110c:	af00      	add	r7, sp, #0
 800110e:	6078      	str	r0, [r7, #4]
D:\Software\workspace_2\XMC4500_IO_Flat\system\CMSIS\Include/core_cm4.h:1679
  if ((ticks - 1) > SysTick_LOAD_RELOAD_Msk)  return (1);      /* Reload value impossible */
 8001110:	687b      	ldr	r3, [r7, #4]
 8001112:	3b01      	subs	r3, #1
 8001114:	f1b3 7f80 	cmp.w	r3, #16777216	; 0x1000000
 8001118:	d301      	bcc.n	800111e <SysTick_Config+0x16>
D:\Software\workspace_2\XMC4500_IO_Flat\system\CMSIS\Include/core_cm4.h:1679 (discriminator 1)
 800111a:	2301      	movs	r3, #1
 800111c:	e00f      	b.n	800113e <SysTick_Config+0x36>
D:\Software\workspace_2\XMC4500_IO_Flat\system\CMSIS\Include/core_cm4.h:1681

  SysTick->LOAD  = ticks - 1;                                  /* set reload register */
 800111e:	4a0a      	ldr	r2, [pc, #40]	; (8001148 <SysTick_Config+0x40>)
 8001120:	687b      	ldr	r3, [r7, #4]
 8001122:	3b01      	subs	r3, #1
 8001124:	6053      	str	r3, [r2, #4]
D:\Software\workspace_2\XMC4500_IO_Flat\system\CMSIS\Include/core_cm4.h:1682
  NVIC_SetPriority (SysTick_IRQn, (1<<__NVIC_PRIO_BITS) - 1);  /* set Priority for Systick Interrupt */
 8001126:	213f      	movs	r1, #63	; 0x3f
 8001128:	f04f 30ff 	mov.w	r0, #4294967295
 800112c:	f7ff ffc2 	bl	80010b4 <NVIC_SetPriority>
D:\Software\workspace_2\XMC4500_IO_Flat\system\CMSIS\Include/core_cm4.h:1683
  SysTick->VAL   = 0;                                          /* Load the SysTick Counter Value */
 8001130:	4b05      	ldr	r3, [pc, #20]	; (8001148 <SysTick_Config+0x40>)
 8001132:	2200      	movs	r2, #0
 8001134:	609a      	str	r2, [r3, #8]
D:\Software\workspace_2\XMC4500_IO_Flat\system\CMSIS\Include/core_cm4.h:1684
  SysTick->CTRL  = SysTick_CTRL_CLKSOURCE_Msk |
 8001136:	4b04      	ldr	r3, [pc, #16]	; (8001148 <SysTick_Config+0x40>)
 8001138:	2207      	movs	r2, #7
 800113a:	601a      	str	r2, [r3, #0]
D:\Software\workspace_2\XMC4500_IO_Flat\system\CMSIS\Include/core_cm4.h:1687
                   SysTick_CTRL_TICKINT_Msk   |
                   SysTick_CTRL_ENABLE_Msk;                    /* Enable SysTick IRQ and SysTick Timer */
  return (0);                                                  /* Function successful */
 800113c:	2300      	movs	r3, #0
D:\Software\workspace_2\XMC4500_IO_Flat\system\CMSIS\Include/core_cm4.h:1688
}
 800113e:	4618      	mov	r0, r3
 8001140:	3708      	adds	r7, #8
 8001142:	46bd      	mov	sp, r7
 8001144:	bd80      	pop	{r7, pc}
 8001146:	bf00      	nop
 8001148:	e000e010 	.word	0xe000e010

0800114c <SysTick_Handler>:
SysTick_Handler():
D:\Software\workspace_2\XMC4500_IO_Flat\Debug/../src/main.c:78

void cb_init(void);
int cb_put(unsigned char item);
int cb_get(unsigned char *pitem);

void SysTick_Handler(void) {
 800114c:	b580      	push	{r7, lr}
 800114e:	af00      	add	r7, sp, #0
D:\Software\workspace_2\XMC4500_IO_Flat\Debug/../src/main.c:82

	static int ticks=0;

	read_Buttons();		//Reads Button Status
 8001150:	f000 f8a0 	bl	8001294 <read_Buttons>
D:\Software\workspace_2\XMC4500_IO_Flat\Debug/../src/main.c:83
	ticks++;
 8001154:	4b13      	ldr	r3, [pc, #76]	; (80011a4 <SysTick_Handler+0x58>)
 8001156:	681b      	ldr	r3, [r3, #0]
 8001158:	3301      	adds	r3, #1
 800115a:	4a12      	ldr	r2, [pc, #72]	; (80011a4 <SysTick_Handler+0x58>)
 800115c:	6013      	str	r3, [r2, #0]
D:\Software\workspace_2\XMC4500_IO_Flat\Debug/../src/main.c:85

	if(ticks==TICKS_WAIT)
 800115e:	4b11      	ldr	r3, [pc, #68]	; (80011a4 <SysTick_Handler+0x58>)
 8001160:	681b      	ldr	r3, [r3, #0]
 8001162:	2bc8      	cmp	r3, #200	; 0xc8
 8001164:	d11b      	bne.n	800119e <SysTick_Handler+0x52>
D:\Software\workspace_2\XMC4500_IO_Flat\Debug/../src/main.c:87
	{
		if(update_LED)	//If the Mode was changed the LEDs are set/reset according to the mode selected
 8001166:	4b10      	ldr	r3, [pc, #64]	; (80011a8 <SysTick_Handler+0x5c>)
 8001168:	681b      	ldr	r3, [r3, #0]
 800116a:	2b00      	cmp	r3, #0
 800116c:	d012      	beq.n	8001194 <SysTick_Handler+0x48>
D:\Software\workspace_2\XMC4500_IO_Flat\Debug/../src/main.c:89
		{
			PORT1->OMR |= 0x00030000;
 800116e:	4a0f      	ldr	r2, [pc, #60]	; (80011ac <SysTick_Handler+0x60>)
 8001170:	4b0e      	ldr	r3, [pc, #56]	; (80011ac <SysTick_Handler+0x60>)
 8001172:	685b      	ldr	r3, [r3, #4]
 8001174:	f443 3340 	orr.w	r3, r3, #196608	; 0x30000
 8001178:	6053      	str	r3, [r2, #4]
D:\Software\workspace_2\XMC4500_IO_Flat\Debug/../src/main.c:90
			if(mode==3)
 800117a:	4b0d      	ldr	r3, [pc, #52]	; (80011b0 <SysTick_Handler+0x64>)
 800117c:	681b      	ldr	r3, [r3, #0]
 800117e:	2b03      	cmp	r3, #3
 8001180:	d105      	bne.n	800118e <SysTick_Handler+0x42>
D:\Software\workspace_2\XMC4500_IO_Flat\Debug/../src/main.c:92
			{
				PORT1->OMR |= 0x00000001;
 8001182:	4a0a      	ldr	r2, [pc, #40]	; (80011ac <SysTick_Handler+0x60>)
 8001184:	4b09      	ldr	r3, [pc, #36]	; (80011ac <SysTick_Handler+0x60>)
 8001186:	685b      	ldr	r3, [r3, #4]
 8001188:	f043 0301 	orr.w	r3, r3, #1
 800118c:	6053      	str	r3, [r2, #4]
D:\Software\workspace_2\XMC4500_IO_Flat\Debug/../src/main.c:94
			}
			update_LED=0;
 800118e:	4b06      	ldr	r3, [pc, #24]	; (80011a8 <SysTick_Handler+0x5c>)
 8001190:	2200      	movs	r2, #0
 8001192:	601a      	str	r2, [r3, #0]
D:\Software\workspace_2\XMC4500_IO_Flat\Debug/../src/main.c:96
		}
		LED_control();	//Controls the LEDs
 8001194:	f000 f80e 	bl	80011b4 <LED_control>
D:\Software\workspace_2\XMC4500_IO_Flat\Debug/../src/main.c:97
		ticks=0;
 8001198:	4b02      	ldr	r3, [pc, #8]	; (80011a4 <SysTick_Handler+0x58>)
 800119a:	2200      	movs	r2, #0
 800119c:	601a      	str	r2, [r3, #0]
D:\Software\workspace_2\XMC4500_IO_Flat\Debug/../src/main.c:100
	}

}
 800119e:	bf00      	nop
 80011a0:	bd80      	pop	{r7, pc}
 80011a2:	bf00      	nop
 80011a4:	20000854 	.word	0x20000854
 80011a8:	20000850 	.word	0x20000850
 80011ac:	48028100 	.word	0x48028100
 80011b0:	2000084c 	.word	0x2000084c

080011b4 <LED_control>:
LED_control():
D:\Software\workspace_2\XMC4500_IO_Flat\Debug/../src/main.c:103

void LED_control(void)
{
 80011b4:	b480      	push	{r7}
 80011b6:	af00      	add	r7, sp, #0
D:\Software\workspace_2\XMC4500_IO_Flat\Debug/../src/main.c:104
	if(control==0)		//Run-Mode LED driver
 80011b8:	4b33      	ldr	r3, [pc, #204]	; (8001288 <LED_control+0xd4>)
 80011ba:	681b      	ldr	r3, [r3, #0]
 80011bc:	2b00      	cmp	r3, #0
 80011be:	d12b      	bne.n	8001218 <LED_control+0x64>
D:\Software\workspace_2\XMC4500_IO_Flat\Debug/../src/main.c:106
	{
		if(mode==0)
 80011c0:	4b32      	ldr	r3, [pc, #200]	; (800128c <LED_control+0xd8>)
 80011c2:	681b      	ldr	r3, [r3, #0]
 80011c4:	2b00      	cmp	r3, #0
 80011c6:	d106      	bne.n	80011d6 <LED_control+0x22>
D:\Software\workspace_2\XMC4500_IO_Flat\Debug/../src/main.c:108
		{
			PORT1->OMR |= 0x00010001;
 80011c8:	4a31      	ldr	r2, [pc, #196]	; (8001290 <LED_control+0xdc>)
 80011ca:	4b31      	ldr	r3, [pc, #196]	; (8001290 <LED_control+0xdc>)
 80011cc:	685b      	ldr	r3, [r3, #4]
 80011ce:	f043 1301 	orr.w	r3, r3, #65537	; 0x10001
 80011d2:	6053      	str	r3, [r2, #4]
D:\Software\workspace_2\XMC4500_IO_Flat\Debug/../src/main.c:143
		{
			PORT1->OMR |= 0x00000003;
		}

	}
}
 80011d4:	e053      	b.n	800127e <LED_control+0xca>
D:\Software\workspace_2\XMC4500_IO_Flat\Debug/../src/main.c:110
	{
		if(mode==0)
		{
			PORT1->OMR |= 0x00010001;
		}
		else if(mode==1)
 80011d6:	4b2d      	ldr	r3, [pc, #180]	; (800128c <LED_control+0xd8>)
 80011d8:	681b      	ldr	r3, [r3, #0]
 80011da:	2b01      	cmp	r3, #1
 80011dc:	d106      	bne.n	80011ec <LED_control+0x38>
D:\Software\workspace_2\XMC4500_IO_Flat\Debug/../src/main.c:112
		{
			PORT1->OMR |= 0x00020002;
 80011de:	4a2c      	ldr	r2, [pc, #176]	; (8001290 <LED_control+0xdc>)
 80011e0:	4b2b      	ldr	r3, [pc, #172]	; (8001290 <LED_control+0xdc>)
 80011e2:	685b      	ldr	r3, [r3, #4]
 80011e4:	f043 1302 	orr.w	r3, r3, #131074	; 0x20002
 80011e8:	6053      	str	r3, [r2, #4]
D:\Software\workspace_2\XMC4500_IO_Flat\Debug/../src/main.c:143
		{
			PORT1->OMR |= 0x00000003;
		}

	}
}
 80011ea:	e048      	b.n	800127e <LED_control+0xca>
D:\Software\workspace_2\XMC4500_IO_Flat\Debug/../src/main.c:114
		}
		else if(mode==1)
		{
			PORT1->OMR |= 0x00020002;
		}
		else if(mode==2)
 80011ec:	4b27      	ldr	r3, [pc, #156]	; (800128c <LED_control+0xd8>)
 80011ee:	681b      	ldr	r3, [r3, #0]
 80011f0:	2b02      	cmp	r3, #2
 80011f2:	d106      	bne.n	8001202 <LED_control+0x4e>
D:\Software\workspace_2\XMC4500_IO_Flat\Debug/../src/main.c:116
		{
			PORT1->OMR |= 0x00030003;
 80011f4:	4a26      	ldr	r2, [pc, #152]	; (8001290 <LED_control+0xdc>)
 80011f6:	4b26      	ldr	r3, [pc, #152]	; (8001290 <LED_control+0xdc>)
 80011f8:	685b      	ldr	r3, [r3, #4]
 80011fa:	f043 1303 	orr.w	r3, r3, #196611	; 0x30003
 80011fe:	6053      	str	r3, [r2, #4]
D:\Software\workspace_2\XMC4500_IO_Flat\Debug/../src/main.c:143
		{
			PORT1->OMR |= 0x00000003;
		}

	}
}
 8001200:	e03d      	b.n	800127e <LED_control+0xca>
D:\Software\workspace_2\XMC4500_IO_Flat\Debug/../src/main.c:118
		}
		else if(mode==2)
		{
			PORT1->OMR |= 0x00030003;
		}
		else if(mode==3)
 8001202:	4b22      	ldr	r3, [pc, #136]	; (800128c <LED_control+0xd8>)
 8001204:	681b      	ldr	r3, [r3, #0]
 8001206:	2b03      	cmp	r3, #3
 8001208:	d139      	bne.n	800127e <LED_control+0xca>
D:\Software\workspace_2\XMC4500_IO_Flat\Debug/../src/main.c:120
		{
			PORT1->OMR |= 0x00030003;
 800120a:	4a21      	ldr	r2, [pc, #132]	; (8001290 <LED_control+0xdc>)
 800120c:	4b20      	ldr	r3, [pc, #128]	; (8001290 <LED_control+0xdc>)
 800120e:	685b      	ldr	r3, [r3, #4]
 8001210:	f043 1303 	orr.w	r3, r3, #196611	; 0x30003
 8001214:	6053      	str	r3, [r2, #4]
D:\Software\workspace_2\XMC4500_IO_Flat\Debug/../src/main.c:143
		{
			PORT1->OMR |= 0x00000003;
		}

	}
}
 8001216:	e032      	b.n	800127e <LED_control+0xca>
D:\Software\workspace_2\XMC4500_IO_Flat\Debug/../src/main.c:123
		else if(mode==3)
		{
			PORT1->OMR |= 0x00030003;
		}
	}
	else if(control==1)		//Control-Mode LED driver
 8001218:	4b1b      	ldr	r3, [pc, #108]	; (8001288 <LED_control+0xd4>)
 800121a:	681b      	ldr	r3, [r3, #0]
 800121c:	2b01      	cmp	r3, #1
 800121e:	d12e      	bne.n	800127e <LED_control+0xca>
D:\Software\workspace_2\XMC4500_IO_Flat\Debug/../src/main.c:125
	{
		if(mode==0)
 8001220:	4b1a      	ldr	r3, [pc, #104]	; (800128c <LED_control+0xd8>)
 8001222:	681b      	ldr	r3, [r3, #0]
 8001224:	2b00      	cmp	r3, #0
 8001226:	d106      	bne.n	8001236 <LED_control+0x82>
D:\Software\workspace_2\XMC4500_IO_Flat\Debug/../src/main.c:127
		{
			PORT1->OMR |= 0x00030000;
 8001228:	4a19      	ldr	r2, [pc, #100]	; (8001290 <LED_control+0xdc>)
 800122a:	4b19      	ldr	r3, [pc, #100]	; (8001290 <LED_control+0xdc>)
 800122c:	685b      	ldr	r3, [r3, #4]
 800122e:	f443 3340 	orr.w	r3, r3, #196608	; 0x30000
 8001232:	6053      	str	r3, [r2, #4]
D:\Software\workspace_2\XMC4500_IO_Flat\Debug/../src/main.c:143
		{
			PORT1->OMR |= 0x00000003;
		}

	}
}
 8001234:	e023      	b.n	800127e <LED_control+0xca>
D:\Software\workspace_2\XMC4500_IO_Flat\Debug/../src/main.c:129
	{
		if(mode==0)
		{
			PORT1->OMR |= 0x00030000;
		}
		else if(mode==1)
 8001236:	4b15      	ldr	r3, [pc, #84]	; (800128c <LED_control+0xd8>)
 8001238:	681b      	ldr	r3, [r3, #0]
 800123a:	2b01      	cmp	r3, #1
 800123c:	d108      	bne.n	8001250 <LED_control+0x9c>
D:\Software\workspace_2\XMC4500_IO_Flat\Debug/../src/main.c:131
		{
			PORT1->OMR |= 0x00010002;
 800123e:	4a14      	ldr	r2, [pc, #80]	; (8001290 <LED_control+0xdc>)
 8001240:	4b13      	ldr	r3, [pc, #76]	; (8001290 <LED_control+0xdc>)
 8001242:	685b      	ldr	r3, [r3, #4]
 8001244:	f443 3380 	orr.w	r3, r3, #65536	; 0x10000
 8001248:	f043 0302 	orr.w	r3, r3, #2
 800124c:	6053      	str	r3, [r2, #4]
D:\Software\workspace_2\XMC4500_IO_Flat\Debug/../src/main.c:143
		{
			PORT1->OMR |= 0x00000003;
		}

	}
}
 800124e:	e016      	b.n	800127e <LED_control+0xca>
D:\Software\workspace_2\XMC4500_IO_Flat\Debug/../src/main.c:133
		}
		else if(mode==1)
		{
			PORT1->OMR |= 0x00010002;
		}
		else if(mode==2)
 8001250:	4b0e      	ldr	r3, [pc, #56]	; (800128c <LED_control+0xd8>)
 8001252:	681b      	ldr	r3, [r3, #0]
 8001254:	2b02      	cmp	r3, #2
 8001256:	d108      	bne.n	800126a <LED_control+0xb6>
D:\Software\workspace_2\XMC4500_IO_Flat\Debug/../src/main.c:135
		{
			PORT1->OMR |= 0x00020001;
 8001258:	4a0d      	ldr	r2, [pc, #52]	; (8001290 <LED_control+0xdc>)
 800125a:	4b0d      	ldr	r3, [pc, #52]	; (8001290 <LED_control+0xdc>)
 800125c:	685b      	ldr	r3, [r3, #4]
 800125e:	f443 3300 	orr.w	r3, r3, #131072	; 0x20000
 8001262:	f043 0301 	orr.w	r3, r3, #1
 8001266:	6053      	str	r3, [r2, #4]
D:\Software\workspace_2\XMC4500_IO_Flat\Debug/../src/main.c:143
		{
			PORT1->OMR |= 0x00000003;
		}

	}
}
 8001268:	e009      	b.n	800127e <LED_control+0xca>
D:\Software\workspace_2\XMC4500_IO_Flat\Debug/../src/main.c:137
		}
		else if(mode==2)
		{
			PORT1->OMR |= 0x00020001;
		}
		else if(mode==3)
 800126a:	4b08      	ldr	r3, [pc, #32]	; (800128c <LED_control+0xd8>)
 800126c:	681b      	ldr	r3, [r3, #0]
 800126e:	2b03      	cmp	r3, #3
 8001270:	d105      	bne.n	800127e <LED_control+0xca>
D:\Software\workspace_2\XMC4500_IO_Flat\Debug/../src/main.c:139
		{
			PORT1->OMR |= 0x00000003;
 8001272:	4a07      	ldr	r2, [pc, #28]	; (8001290 <LED_control+0xdc>)
 8001274:	4b06      	ldr	r3, [pc, #24]	; (8001290 <LED_control+0xdc>)
 8001276:	685b      	ldr	r3, [r3, #4]
 8001278:	f043 0303 	orr.w	r3, r3, #3
 800127c:	6053      	str	r3, [r2, #4]
D:\Software\workspace_2\XMC4500_IO_Flat\Debug/../src/main.c:143
		}

	}
}
 800127e:	bf00      	nop
 8001280:	46bd      	mov	sp, r7
 8001282:	bc80      	pop	{r7}
 8001284:	4770      	bx	lr
 8001286:	bf00      	nop
 8001288:	20000874 	.word	0x20000874
 800128c:	2000084c 	.word	0x2000084c
 8001290:	48028100 	.word	0x48028100

08001294 <read_Buttons>:
read_Buttons():
D:\Software\workspace_2\XMC4500_IO_Flat\Debug/../src/main.c:146

void read_Buttons(void)
{
 8001294:	b580      	push	{r7, lr}
 8001296:	af00      	add	r7, sp, #0
D:\Software\workspace_2\XMC4500_IO_Flat\Debug/../src/main.c:149
	static int b1=0,b2=0;

	if(((PORT1->IN & 0x00004000) == 0) && (b1 == 0) && (control == 1))
 8001298:	4b44      	ldr	r3, [pc, #272]	; (80013ac <read_Buttons+0x118>)
 800129a:	6a5b      	ldr	r3, [r3, #36]	; 0x24
 800129c:	f403 4380 	and.w	r3, r3, #16384	; 0x4000
 80012a0:	2b00      	cmp	r3, #0
 80012a2:	d10d      	bne.n	80012c0 <read_Buttons+0x2c>
D:\Software\workspace_2\XMC4500_IO_Flat\Debug/../src/main.c:149 (discriminator 1)
 80012a4:	4b42      	ldr	r3, [pc, #264]	; (80013b0 <read_Buttons+0x11c>)
 80012a6:	681b      	ldr	r3, [r3, #0]
 80012a8:	2b00      	cmp	r3, #0
 80012aa:	d109      	bne.n	80012c0 <read_Buttons+0x2c>
D:\Software\workspace_2\XMC4500_IO_Flat\Debug/../src/main.c:149 (discriminator 2)
 80012ac:	4b41      	ldr	r3, [pc, #260]	; (80013b4 <read_Buttons+0x120>)
 80012ae:	681b      	ldr	r3, [r3, #0]
 80012b0:	2b01      	cmp	r3, #1
 80012b2:	d105      	bne.n	80012c0 <read_Buttons+0x2c>
D:\Software\workspace_2\XMC4500_IO_Flat\Debug/../src/main.c:151
	{
		b1++;
 80012b4:	4b3e      	ldr	r3, [pc, #248]	; (80013b0 <read_Buttons+0x11c>)
 80012b6:	681b      	ldr	r3, [r3, #0]
 80012b8:	3301      	adds	r3, #1
 80012ba:	4a3d      	ldr	r2, [pc, #244]	; (80013b0 <read_Buttons+0x11c>)
 80012bc:	6013      	str	r3, [r2, #0]
 80012be:	e034      	b.n	800132a <read_Buttons+0x96>
D:\Software\workspace_2\XMC4500_IO_Flat\Debug/../src/main.c:153
	}
	else if (((PORT1->IN & 0x00004000) == 0) && (b1 == 1) && (control == 1))
 80012c0:	4b3a      	ldr	r3, [pc, #232]	; (80013ac <read_Buttons+0x118>)
 80012c2:	6a5b      	ldr	r3, [r3, #36]	; 0x24
 80012c4:	f403 4380 	and.w	r3, r3, #16384	; 0x4000
 80012c8:	2b00      	cmp	r3, #0
 80012ca:	d10d      	bne.n	80012e8 <read_Buttons+0x54>
D:\Software\workspace_2\XMC4500_IO_Flat\Debug/../src/main.c:153 (discriminator 1)
 80012cc:	4b38      	ldr	r3, [pc, #224]	; (80013b0 <read_Buttons+0x11c>)
 80012ce:	681b      	ldr	r3, [r3, #0]
 80012d0:	2b01      	cmp	r3, #1
 80012d2:	d109      	bne.n	80012e8 <read_Buttons+0x54>
D:\Software\workspace_2\XMC4500_IO_Flat\Debug/../src/main.c:153 (discriminator 2)
 80012d4:	4b37      	ldr	r3, [pc, #220]	; (80013b4 <read_Buttons+0x120>)
 80012d6:	681b      	ldr	r3, [r3, #0]
 80012d8:	2b01      	cmp	r3, #1
 80012da:	d105      	bne.n	80012e8 <read_Buttons+0x54>
D:\Software\workspace_2\XMC4500_IO_Flat\Debug/../src/main.c:155
	{
		b1++;
 80012dc:	4b34      	ldr	r3, [pc, #208]	; (80013b0 <read_Buttons+0x11c>)
 80012de:	681b      	ldr	r3, [r3, #0]
 80012e0:	3301      	adds	r3, #1
 80012e2:	4a33      	ldr	r2, [pc, #204]	; (80013b0 <read_Buttons+0x11c>)
 80012e4:	6013      	str	r3, [r2, #0]
 80012e6:	e020      	b.n	800132a <read_Buttons+0x96>
D:\Software\workspace_2\XMC4500_IO_Flat\Debug/../src/main.c:157
	}
	else if (((PORT1->IN & 0x00004000) == 0) && (b1 == 2) && (control == 1))
 80012e8:	4b30      	ldr	r3, [pc, #192]	; (80013ac <read_Buttons+0x118>)
 80012ea:	6a5b      	ldr	r3, [r3, #36]	; 0x24
 80012ec:	f403 4380 	and.w	r3, r3, #16384	; 0x4000
 80012f0:	2b00      	cmp	r3, #0
 80012f2:	d11a      	bne.n	800132a <read_Buttons+0x96>
D:\Software\workspace_2\XMC4500_IO_Flat\Debug/../src/main.c:157 (discriminator 1)
 80012f4:	4b2e      	ldr	r3, [pc, #184]	; (80013b0 <read_Buttons+0x11c>)
 80012f6:	681b      	ldr	r3, [r3, #0]
 80012f8:	2b02      	cmp	r3, #2
 80012fa:	d116      	bne.n	800132a <read_Buttons+0x96>
D:\Software\workspace_2\XMC4500_IO_Flat\Debug/../src/main.c:157 (discriminator 2)
 80012fc:	4b2d      	ldr	r3, [pc, #180]	; (80013b4 <read_Buttons+0x120>)
 80012fe:	681b      	ldr	r3, [r3, #0]
 8001300:	2b01      	cmp	r3, #1
 8001302:	d112      	bne.n	800132a <read_Buttons+0x96>
D:\Software\workspace_2\XMC4500_IO_Flat\Debug/../src/main.c:159
	{
		if(cb_put('0')==0)
 8001304:	2030      	movs	r0, #48	; 0x30
 8001306:	f000 f875 	bl	80013f4 <cb_put>
 800130a:	4603      	mov	r3, r0
 800130c:	2b00      	cmp	r3, #0
 800130e:	d10c      	bne.n	800132a <read_Buttons+0x96>
D:\Software\workspace_2\XMC4500_IO_Flat\Debug/../src/main.c:161
		{
			b1=0;
 8001310:	4b27      	ldr	r3, [pc, #156]	; (80013b0 <read_Buttons+0x11c>)
 8001312:	2200      	movs	r2, #0
 8001314:	601a      	str	r2, [r3, #0]
D:\Software\workspace_2\XMC4500_IO_Flat\Debug/../src/main.c:162
			update_LED=1;
 8001316:	4b28      	ldr	r3, [pc, #160]	; (80013b8 <read_Buttons+0x124>)
 8001318:	2201      	movs	r2, #1
 800131a:	601a      	str	r2, [r3, #0]
D:\Software\workspace_2\XMC4500_IO_Flat\Debug/../src/main.c:163
			while((PORT1->IN & 0x00004000) == 0);
 800131c:	bf00      	nop
D:\Software\workspace_2\XMC4500_IO_Flat\Debug/../src/main.c:163 (discriminator 1)
 800131e:	4b23      	ldr	r3, [pc, #140]	; (80013ac <read_Buttons+0x118>)
 8001320:	6a5b      	ldr	r3, [r3, #36]	; 0x24
 8001322:	f403 4380 	and.w	r3, r3, #16384	; 0x4000
 8001326:	2b00      	cmp	r3, #0
 8001328:	d0f9      	beq.n	800131e <read_Buttons+0x8a>
D:\Software\workspace_2\XMC4500_IO_Flat\Debug/../src/main.c:168
		}

	}

	if(((PORT1->IN & 0x00008000) == 0) && (b2 == 0))
 800132a:	4b20      	ldr	r3, [pc, #128]	; (80013ac <read_Buttons+0x118>)
 800132c:	6a5b      	ldr	r3, [r3, #36]	; 0x24
 800132e:	f403 4300 	and.w	r3, r3, #32768	; 0x8000
 8001332:	2b00      	cmp	r3, #0
 8001334:	d109      	bne.n	800134a <read_Buttons+0xb6>
D:\Software\workspace_2\XMC4500_IO_Flat\Debug/../src/main.c:168 (discriminator 1)
 8001336:	4b21      	ldr	r3, [pc, #132]	; (80013bc <read_Buttons+0x128>)
 8001338:	681b      	ldr	r3, [r3, #0]
 800133a:	2b00      	cmp	r3, #0
 800133c:	d105      	bne.n	800134a <read_Buttons+0xb6>
D:\Software\workspace_2\XMC4500_IO_Flat\Debug/../src/main.c:170
		{
			b2++;
 800133e:	4b1f      	ldr	r3, [pc, #124]	; (80013bc <read_Buttons+0x128>)
 8001340:	681b      	ldr	r3, [r3, #0]
 8001342:	3301      	adds	r3, #1
 8001344:	4a1d      	ldr	r2, [pc, #116]	; (80013bc <read_Buttons+0x128>)
 8001346:	6013      	str	r3, [r2, #0]
 8001348:	e02d      	b.n	80013a6 <read_Buttons+0x112>
D:\Software\workspace_2\XMC4500_IO_Flat\Debug/../src/main.c:172
		}
		else if (((PORT1->IN & 0x00008000) == 0) && (b2 == 1))
 800134a:	4b18      	ldr	r3, [pc, #96]	; (80013ac <read_Buttons+0x118>)
 800134c:	6a5b      	ldr	r3, [r3, #36]	; 0x24
 800134e:	f403 4300 	and.w	r3, r3, #32768	; 0x8000
 8001352:	2b00      	cmp	r3, #0
 8001354:	d109      	bne.n	800136a <read_Buttons+0xd6>
D:\Software\workspace_2\XMC4500_IO_Flat\Debug/../src/main.c:172 (discriminator 1)
 8001356:	4b19      	ldr	r3, [pc, #100]	; (80013bc <read_Buttons+0x128>)
 8001358:	681b      	ldr	r3, [r3, #0]
 800135a:	2b01      	cmp	r3, #1
 800135c:	d105      	bne.n	800136a <read_Buttons+0xd6>
D:\Software\workspace_2\XMC4500_IO_Flat\Debug/../src/main.c:174
		{
			b2++;
 800135e:	4b17      	ldr	r3, [pc, #92]	; (80013bc <read_Buttons+0x128>)
 8001360:	681b      	ldr	r3, [r3, #0]
 8001362:	3301      	adds	r3, #1
 8001364:	4a15      	ldr	r2, [pc, #84]	; (80013bc <read_Buttons+0x128>)
 8001366:	6013      	str	r3, [r2, #0]
 8001368:	e01d      	b.n	80013a6 <read_Buttons+0x112>
D:\Software\workspace_2\XMC4500_IO_Flat\Debug/../src/main.c:176
		}
		else if (((PORT1->IN & 0x00008000) == 0) && (b2 == 2))
 800136a:	4b10      	ldr	r3, [pc, #64]	; (80013ac <read_Buttons+0x118>)
 800136c:	6a5b      	ldr	r3, [r3, #36]	; 0x24
 800136e:	f403 4300 	and.w	r3, r3, #32768	; 0x8000
 8001372:	2b00      	cmp	r3, #0
 8001374:	d117      	bne.n	80013a6 <read_Buttons+0x112>
D:\Software\workspace_2\XMC4500_IO_Flat\Debug/../src/main.c:176 (discriminator 1)
 8001376:	4b11      	ldr	r3, [pc, #68]	; (80013bc <read_Buttons+0x128>)
 8001378:	681b      	ldr	r3, [r3, #0]
 800137a:	2b02      	cmp	r3, #2
 800137c:	d113      	bne.n	80013a6 <read_Buttons+0x112>
D:\Software\workspace_2\XMC4500_IO_Flat\Debug/../src/main.c:178
		{
			if(cb_put('1')==0)
 800137e:	2031      	movs	r0, #49	; 0x31
 8001380:	f000 f838 	bl	80013f4 <cb_put>
 8001384:	4603      	mov	r3, r0
 8001386:	2b00      	cmp	r3, #0
 8001388:	d10d      	bne.n	80013a6 <read_Buttons+0x112>
D:\Software\workspace_2\XMC4500_IO_Flat\Debug/../src/main.c:180
			{
				b2=0;
 800138a:	4b0c      	ldr	r3, [pc, #48]	; (80013bc <read_Buttons+0x128>)
 800138c:	2200      	movs	r2, #0
 800138e:	601a      	str	r2, [r3, #0]
D:\Software\workspace_2\XMC4500_IO_Flat\Debug/../src/main.c:181
				update_LED=1;
 8001390:	4b09      	ldr	r3, [pc, #36]	; (80013b8 <read_Buttons+0x124>)
 8001392:	2201      	movs	r2, #1
 8001394:	601a      	str	r2, [r3, #0]
D:\Software\workspace_2\XMC4500_IO_Flat\Debug/../src/main.c:182
				while((PORT1->IN & 0x00008000) == 0);
 8001396:	bf00      	nop
D:\Software\workspace_2\XMC4500_IO_Flat\Debug/../src/main.c:182 (discriminator 1)
 8001398:	4b04      	ldr	r3, [pc, #16]	; (80013ac <read_Buttons+0x118>)
 800139a:	6a5b      	ldr	r3, [r3, #36]	; 0x24
 800139c:	f403 4300 	and.w	r3, r3, #32768	; 0x8000
 80013a0:	2b00      	cmp	r3, #0
 80013a2:	d0f9      	beq.n	8001398 <read_Buttons+0x104>
D:\Software\workspace_2\XMC4500_IO_Flat\Debug/../src/main.c:186
			}
		}

}
 80013a4:	e7ff      	b.n	80013a6 <read_Buttons+0x112>
 80013a6:	bf00      	nop
 80013a8:	bd80      	pop	{r7, pc}
 80013aa:	bf00      	nop
 80013ac:	48028100 	.word	0x48028100
 80013b0:	20000858 	.word	0x20000858
 80013b4:	20000874 	.word	0x20000874
 80013b8:	20000850 	.word	0x20000850
 80013bc:	2000085c 	.word	0x2000085c

080013c0 <cb_init>:
cb_init():
D:\Software\workspace_2\XMC4500_IO_Flat\Debug/../src/main.c:188

void cb_init(void) {
 80013c0:	b480      	push	{r7}
 80013c2:	af00      	add	r7, sp, #0
D:\Software\workspace_2\XMC4500_IO_Flat\Debug/../src/main.c:189
  inix = 0;
 80013c4:	4b07      	ldr	r3, [pc, #28]	; (80013e4 <cb_init+0x24>)
 80013c6:	2200      	movs	r2, #0
 80013c8:	601a      	str	r2, [r3, #0]
D:\Software\workspace_2\XMC4500_IO_Flat\Debug/../src/main.c:190
  outix = 0;
 80013ca:	4b07      	ldr	r3, [pc, #28]	; (80013e8 <cb_init+0x28>)
 80013cc:	2200      	movs	r2, #0
 80013ce:	601a      	str	r2, [r3, #0]
D:\Software\workspace_2\XMC4500_IO_Flat\Debug/../src/main.c:191
  full = 0;
 80013d0:	4b06      	ldr	r3, [pc, #24]	; (80013ec <cb_init+0x2c>)
 80013d2:	2200      	movs	r2, #0
 80013d4:	601a      	str	r2, [r3, #0]
D:\Software\workspace_2\XMC4500_IO_Flat\Debug/../src/main.c:192
  empty = 1;
 80013d6:	4b06      	ldr	r3, [pc, #24]	; (80013f0 <cb_init+0x30>)
 80013d8:	2201      	movs	r2, #1
 80013da:	601a      	str	r2, [r3, #0]
D:\Software\workspace_2\XMC4500_IO_Flat\Debug/../src/main.c:193
}
 80013dc:	bf00      	nop
 80013de:	46bd      	mov	sp, r7
 80013e0:	bc80      	pop	{r7}
 80013e2:	4770      	bx	lr
 80013e4:	20000868 	.word	0x20000868
 80013e8:	20000860 	.word	0x20000860
 80013ec:	20000864 	.word	0x20000864
 80013f0:	2000086c 	.word	0x2000086c

080013f4 <cb_put>:
cb_put():
D:\Software\workspace_2\XMC4500_IO_Flat\Debug/../src/main.c:195

int cb_put(unsigned char item) {
 80013f4:	b480      	push	{r7}
 80013f6:	b083      	sub	sp, #12
 80013f8:	af00      	add	r7, sp, #0
 80013fa:	4603      	mov	r3, r0
 80013fc:	71fb      	strb	r3, [r7, #7]
D:\Software\workspace_2\XMC4500_IO_Flat\Debug/../src/main.c:196
  if (full)
 80013fe:	4b16      	ldr	r3, [pc, #88]	; (8001458 <cb_put+0x64>)
 8001400:	681b      	ldr	r3, [r3, #0]
 8001402:	2b00      	cmp	r3, #0
 8001404:	d002      	beq.n	800140c <cb_put+0x18>
D:\Software\workspace_2\XMC4500_IO_Flat\Debug/../src/main.c:197
    return -1;
 8001406:	f04f 33ff 	mov.w	r3, #4294967295
 800140a:	e020      	b.n	800144e <cb_put+0x5a>
D:\Software\workspace_2\XMC4500_IO_Flat\Debug/../src/main.c:198
  inix = (inix + 1) % cb_SIZE;
 800140c:	4b13      	ldr	r3, [pc, #76]	; (800145c <cb_put+0x68>)
 800140e:	681b      	ldr	r3, [r3, #0]
 8001410:	1c5a      	adds	r2, r3, #1
 8001412:	4b13      	ldr	r3, [pc, #76]	; (8001460 <cb_put+0x6c>)
 8001414:	4013      	ands	r3, r2
 8001416:	2b00      	cmp	r3, #0
 8001418:	da03      	bge.n	8001422 <cb_put+0x2e>
 800141a:	3b01      	subs	r3, #1
 800141c:	f063 033f 	orn	r3, r3, #63	; 0x3f
 8001420:	3301      	adds	r3, #1
 8001422:	461a      	mov	r2, r3
 8001424:	4b0d      	ldr	r3, [pc, #52]	; (800145c <cb_put+0x68>)
 8001426:	601a      	str	r2, [r3, #0]
D:\Software\workspace_2\XMC4500_IO_Flat\Debug/../src/main.c:199
  cb[inix] = item;
 8001428:	4b0c      	ldr	r3, [pc, #48]	; (800145c <cb_put+0x68>)
 800142a:	681b      	ldr	r3, [r3, #0]
 800142c:	f997 1007 	ldrsb.w	r1, [r7, #7]
 8001430:	4a0c      	ldr	r2, [pc, #48]	; (8001464 <cb_put+0x70>)
 8001432:	54d1      	strb	r1, [r2, r3]
D:\Software\workspace_2\XMC4500_IO_Flat\Debug/../src/main.c:200
  if (inix == outix)
 8001434:	4b09      	ldr	r3, [pc, #36]	; (800145c <cb_put+0x68>)
 8001436:	681a      	ldr	r2, [r3, #0]
 8001438:	4b0b      	ldr	r3, [pc, #44]	; (8001468 <cb_put+0x74>)
 800143a:	681b      	ldr	r3, [r3, #0]
 800143c:	429a      	cmp	r2, r3
 800143e:	d102      	bne.n	8001446 <cb_put+0x52>
D:\Software\workspace_2\XMC4500_IO_Flat\Debug/../src/main.c:201
    full = 1;
 8001440:	4b05      	ldr	r3, [pc, #20]	; (8001458 <cb_put+0x64>)
 8001442:	2201      	movs	r2, #1
 8001444:	601a      	str	r2, [r3, #0]
D:\Software\workspace_2\XMC4500_IO_Flat\Debug/../src/main.c:202
  empty = 0;
 8001446:	4b09      	ldr	r3, [pc, #36]	; (800146c <cb_put+0x78>)
 8001448:	2200      	movs	r2, #0
 800144a:	601a      	str	r2, [r3, #0]
D:\Software\workspace_2\XMC4500_IO_Flat\Debug/../src/main.c:203
  return 0;
 800144c:	2300      	movs	r3, #0
D:\Software\workspace_2\XMC4500_IO_Flat\Debug/../src/main.c:204
}
 800144e:	4618      	mov	r0, r3
 8001450:	370c      	adds	r7, #12
 8001452:	46bd      	mov	sp, r7
 8001454:	bc80      	pop	{r7}
 8001456:	4770      	bx	lr
 8001458:	20000864 	.word	0x20000864
 800145c:	20000868 	.word	0x20000868
 8001460:	8000003f 	.word	0x8000003f
 8001464:	2000080c 	.word	0x2000080c
 8001468:	20000860 	.word	0x20000860
 800146c:	2000086c 	.word	0x2000086c

08001470 <cb_get>:
cb_get():
D:\Software\workspace_2\XMC4500_IO_Flat\Debug/../src/main.c:206

int cb_get(unsigned char *pitem) {
 8001470:	b480      	push	{r7}
 8001472:	b083      	sub	sp, #12
 8001474:	af00      	add	r7, sp, #0
 8001476:	6078      	str	r0, [r7, #4]
D:\Software\workspace_2\XMC4500_IO_Flat\Debug/../src/main.c:207
  if (empty)
 8001478:	4b16      	ldr	r3, [pc, #88]	; (80014d4 <cb_get+0x64>)
 800147a:	681b      	ldr	r3, [r3, #0]
 800147c:	2b00      	cmp	r3, #0
 800147e:	d002      	beq.n	8001486 <cb_get+0x16>
D:\Software\workspace_2\XMC4500_IO_Flat\Debug/../src/main.c:208
    return -1;
 8001480:	f04f 33ff 	mov.w	r3, #4294967295
 8001484:	e021      	b.n	80014ca <cb_get+0x5a>
D:\Software\workspace_2\XMC4500_IO_Flat\Debug/../src/main.c:209
  outix = (outix + 1) % cb_SIZE;
 8001486:	4b14      	ldr	r3, [pc, #80]	; (80014d8 <cb_get+0x68>)
 8001488:	681b      	ldr	r3, [r3, #0]
 800148a:	1c5a      	adds	r2, r3, #1
 800148c:	4b13      	ldr	r3, [pc, #76]	; (80014dc <cb_get+0x6c>)
 800148e:	4013      	ands	r3, r2
 8001490:	2b00      	cmp	r3, #0
 8001492:	da03      	bge.n	800149c <cb_get+0x2c>
 8001494:	3b01      	subs	r3, #1
 8001496:	f063 033f 	orn	r3, r3, #63	; 0x3f
 800149a:	3301      	adds	r3, #1
 800149c:	461a      	mov	r2, r3
 800149e:	4b0e      	ldr	r3, [pc, #56]	; (80014d8 <cb_get+0x68>)
 80014a0:	601a      	str	r2, [r3, #0]
D:\Software\workspace_2\XMC4500_IO_Flat\Debug/../src/main.c:210
  *pitem = cb[outix];
 80014a2:	4b0d      	ldr	r3, [pc, #52]	; (80014d8 <cb_get+0x68>)
 80014a4:	681b      	ldr	r3, [r3, #0]
 80014a6:	4a0e      	ldr	r2, [pc, #56]	; (80014e0 <cb_get+0x70>)
 80014a8:	56d3      	ldrsb	r3, [r2, r3]
 80014aa:	b2da      	uxtb	r2, r3
 80014ac:	687b      	ldr	r3, [r7, #4]
 80014ae:	701a      	strb	r2, [r3, #0]
D:\Software\workspace_2\XMC4500_IO_Flat\Debug/../src/main.c:211
  if (outix == inix)
 80014b0:	4b09      	ldr	r3, [pc, #36]	; (80014d8 <cb_get+0x68>)
 80014b2:	681a      	ldr	r2, [r3, #0]
 80014b4:	4b0b      	ldr	r3, [pc, #44]	; (80014e4 <cb_get+0x74>)
 80014b6:	681b      	ldr	r3, [r3, #0]
 80014b8:	429a      	cmp	r2, r3
 80014ba:	d102      	bne.n	80014c2 <cb_get+0x52>
D:\Software\workspace_2\XMC4500_IO_Flat\Debug/../src/main.c:212
    empty = 1;
 80014bc:	4b05      	ldr	r3, [pc, #20]	; (80014d4 <cb_get+0x64>)
 80014be:	2201      	movs	r2, #1
 80014c0:	601a      	str	r2, [r3, #0]
D:\Software\workspace_2\XMC4500_IO_Flat\Debug/../src/main.c:213
  full = 0;
 80014c2:	4b09      	ldr	r3, [pc, #36]	; (80014e8 <cb_get+0x78>)
 80014c4:	2200      	movs	r2, #0
 80014c6:	601a      	str	r2, [r3, #0]
D:\Software\workspace_2\XMC4500_IO_Flat\Debug/../src/main.c:214
  return 0;
 80014c8:	2300      	movs	r3, #0
D:\Software\workspace_2\XMC4500_IO_Flat\Debug/../src/main.c:215
}
 80014ca:	4618      	mov	r0, r3
 80014cc:	370c      	adds	r7, #12
 80014ce:	46bd      	mov	sp, r7
 80014d0:	bc80      	pop	{r7}
 80014d2:	4770      	bx	lr
 80014d4:	2000086c 	.word	0x2000086c
 80014d8:	20000860 	.word	0x20000860
 80014dc:	8000003f 	.word	0x8000003f
 80014e0:	2000080c 	.word	0x2000080c
 80014e4:	20000868 	.word	0x20000868
 80014e8:	20000864 	.word	0x20000864

080014ec <main>:
main():
D:\Software\workspace_2\XMC4500_IO_Flat\Debug/../src/main.c:217

int main(void) {
 80014ec:	b580      	push	{r7, lr}
 80014ee:	b082      	sub	sp, #8
 80014f0:	af00      	add	r7, sp, #0
D:\Software\workspace_2\XMC4500_IO_Flat\Debug/../src/main.c:221

	unsigned char rec;

	cb_init();
 80014f2:	f7ff ff65 	bl	80013c0 <cb_init>
D:\Software\workspace_2\XMC4500_IO_Flat\Debug/../src/main.c:223

	PORT1->IOCR12 = 0x00000000;	//Initialize Button1 & Button2
 80014f6:	4b3e      	ldr	r3, [pc, #248]	; (80015f0 <main+0x104>)
 80014f8:	2200      	movs	r2, #0
 80014fa:	61da      	str	r2, [r3, #28]
D:\Software\workspace_2\XMC4500_IO_Flat\Debug/../src/main.c:227
	//P1_1_set_mode(OUTPUT_PP_GP);	//LED 1 Mode
	//P1_0_set_mode(OUTPUT_PP_GP);	//LED 2 Mode

	PORT1->IOCR0 |= 0x8080;		//Initialize LED1 & LED2
 80014fc:	4a3c      	ldr	r2, [pc, #240]	; (80015f0 <main+0x104>)
 80014fe:	4b3c      	ldr	r3, [pc, #240]	; (80015f0 <main+0x104>)
 8001500:	691b      	ldr	r3, [r3, #16]
 8001502:	f443 4300 	orr.w	r3, r3, #32768	; 0x8000
 8001506:	f043 0380 	orr.w	r3, r3, #128	; 0x80
 800150a:	6113      	str	r3, [r2, #16]
D:\Software\workspace_2\XMC4500_IO_Flat\Debug/../src/main.c:229

	PORT1->OMR |= 0x00000001;	//LED1 set
 800150c:	4a38      	ldr	r2, [pc, #224]	; (80015f0 <main+0x104>)
 800150e:	4b38      	ldr	r3, [pc, #224]	; (80015f0 <main+0x104>)
 8001510:	685b      	ldr	r3, [r3, #4]
 8001512:	f043 0301 	orr.w	r3, r3, #1
 8001516:	6053      	str	r3, [r2, #4]
D:\Software\workspace_2\XMC4500_IO_Flat\Debug/../src/main.c:230
	PORT1->OMR |= 0x00010000;	//LED1 reset
 8001518:	4a35      	ldr	r2, [pc, #212]	; (80015f0 <main+0x104>)
 800151a:	4b35      	ldr	r3, [pc, #212]	; (80015f0 <main+0x104>)
 800151c:	685b      	ldr	r3, [r3, #4]
 800151e:	f443 3380 	orr.w	r3, r3, #65536	; 0x10000
 8001522:	6053      	str	r3, [r2, #4]
D:\Software\workspace_2\XMC4500_IO_Flat\Debug/../src/main.c:231
	PORT1->OMR |= 0x00010001;	//LED1 toggle
 8001524:	4a32      	ldr	r2, [pc, #200]	; (80015f0 <main+0x104>)
 8001526:	4b32      	ldr	r3, [pc, #200]	; (80015f0 <main+0x104>)
 8001528:	685b      	ldr	r3, [r3, #4]
 800152a:	f043 1301 	orr.w	r3, r3, #65537	; 0x10001
 800152e:	6053      	str	r3, [r2, #4]
D:\Software\workspace_2\XMC4500_IO_Flat\Debug/../src/main.c:233

	PORT1->OMR |= 0x00000002;	//LED2 set
 8001530:	4a2f      	ldr	r2, [pc, #188]	; (80015f0 <main+0x104>)
 8001532:	4b2f      	ldr	r3, [pc, #188]	; (80015f0 <main+0x104>)
 8001534:	685b      	ldr	r3, [r3, #4]
 8001536:	f043 0302 	orr.w	r3, r3, #2
 800153a:	6053      	str	r3, [r2, #4]
D:\Software\workspace_2\XMC4500_IO_Flat\Debug/../src/main.c:234
	PORT1->OMR |= 0x00020000;	//LED1 reset
 800153c:	4a2c      	ldr	r2, [pc, #176]	; (80015f0 <main+0x104>)
 800153e:	4b2c      	ldr	r3, [pc, #176]	; (80015f0 <main+0x104>)
 8001540:	685b      	ldr	r3, [r3, #4]
 8001542:	f443 3300 	orr.w	r3, r3, #131072	; 0x20000
 8001546:	6053      	str	r3, [r2, #4]
D:\Software\workspace_2\XMC4500_IO_Flat\Debug/../src/main.c:235
	PORT1->OMR |= 0x00020002;	//LED1 toggle
 8001548:	4a29      	ldr	r2, [pc, #164]	; (80015f0 <main+0x104>)
 800154a:	4b29      	ldr	r3, [pc, #164]	; (80015f0 <main+0x104>)
 800154c:	685b      	ldr	r3, [r3, #4]
 800154e:	f043 1302 	orr.w	r3, r3, #131074	; 0x20002
 8001552:	6053      	str	r3, [r2, #4]
D:\Software\workspace_2\XMC4500_IO_Flat\Debug/../src/main.c:237

	PORT1->OMR |= 0x00000003;	//LED1 & LED2 set
 8001554:	4a26      	ldr	r2, [pc, #152]	; (80015f0 <main+0x104>)
 8001556:	4b26      	ldr	r3, [pc, #152]	; (80015f0 <main+0x104>)
 8001558:	685b      	ldr	r3, [r3, #4]
 800155a:	f043 0303 	orr.w	r3, r3, #3
 800155e:	6053      	str	r3, [r2, #4]
D:\Software\workspace_2\XMC4500_IO_Flat\Debug/../src/main.c:238
	PORT1->OMR |= 0x00030000;	//LED1 & LED2 reset
 8001560:	4a23      	ldr	r2, [pc, #140]	; (80015f0 <main+0x104>)
 8001562:	4b23      	ldr	r3, [pc, #140]	; (80015f0 <main+0x104>)
 8001564:	685b      	ldr	r3, [r3, #4]
 8001566:	f443 3340 	orr.w	r3, r3, #196608	; 0x30000
 800156a:	6053      	str	r3, [r2, #4]
D:\Software\workspace_2\XMC4500_IO_Flat\Debug/../src/main.c:239
	PORT1->OMR |= 0x00030003;	//LED1 & LED2 toggle
 800156c:	4a20      	ldr	r2, [pc, #128]	; (80015f0 <main+0x104>)
 800156e:	4b20      	ldr	r3, [pc, #128]	; (80015f0 <main+0x104>)
 8001570:	685b      	ldr	r3, [r3, #4]
 8001572:	f043 1303 	orr.w	r3, r3, #196611	; 0x30003
 8001576:	6053      	str	r3, [r2, #4]
D:\Software\workspace_2\XMC4500_IO_Flat\Debug/../src/main.c:242

	/* System timer configuration */
	SysTick_Config(SystemCoreClock / TICKS_PER_SECOND);
 8001578:	4b1e      	ldr	r3, [pc, #120]	; (80015f4 <main+0x108>)
 800157a:	681b      	ldr	r3, [r3, #0]
 800157c:	4a1e      	ldr	r2, [pc, #120]	; (80015f8 <main+0x10c>)
 800157e:	fba2 2303 	umull	r2, r3, r2, r3
 8001582:	099b      	lsrs	r3, r3, #6
 8001584:	4618      	mov	r0, r3
 8001586:	f7ff fdbf 	bl	8001108 <SysTick_Config>
D:\Software\workspace_2\XMC4500_IO_Flat\Debug/../src/main.c:246

	while(1) {

		if(empty!=1)
 800158a:	4b1c      	ldr	r3, [pc, #112]	; (80015fc <main+0x110>)
 800158c:	681b      	ldr	r3, [r3, #0]
 800158e:	2b01      	cmp	r3, #1
 8001590:	d0fb      	beq.n	800158a <main+0x9e>
D:\Software\workspace_2\XMC4500_IO_Flat\Debug/../src/main.c:248
		{
			cb_get(&rec);
 8001592:	1dfb      	adds	r3, r7, #7
 8001594:	4618      	mov	r0, r3
 8001596:	f7ff ff6b 	bl	8001470 <cb_get>
D:\Software\workspace_2\XMC4500_IO_Flat\Debug/../src/main.c:249
			if(rec=='0' && control==1)
 800159a:	79fb      	ldrb	r3, [r7, #7]
 800159c:	2b30      	cmp	r3, #48	; 0x30
 800159e:	d110      	bne.n	80015c2 <main+0xd6>
D:\Software\workspace_2\XMC4500_IO_Flat\Debug/../src/main.c:249 (discriminator 1)
 80015a0:	4b17      	ldr	r3, [pc, #92]	; (8001600 <main+0x114>)
 80015a2:	681b      	ldr	r3, [r3, #0]
 80015a4:	2b01      	cmp	r3, #1
 80015a6:	d10c      	bne.n	80015c2 <main+0xd6>
D:\Software\workspace_2\XMC4500_IO_Flat\Debug/../src/main.c:251
			{
				mode++;
 80015a8:	4b16      	ldr	r3, [pc, #88]	; (8001604 <main+0x118>)
 80015aa:	681b      	ldr	r3, [r3, #0]
 80015ac:	3301      	adds	r3, #1
 80015ae:	4a15      	ldr	r2, [pc, #84]	; (8001604 <main+0x118>)
 80015b0:	6013      	str	r3, [r2, #0]
D:\Software\workspace_2\XMC4500_IO_Flat\Debug/../src/main.c:252
				if(mode==4)
 80015b2:	4b14      	ldr	r3, [pc, #80]	; (8001604 <main+0x118>)
 80015b4:	681b      	ldr	r3, [r3, #0]
 80015b6:	2b04      	cmp	r3, #4
 80015b8:	d118      	bne.n	80015ec <main+0x100>
D:\Software\workspace_2\XMC4500_IO_Flat\Debug/../src/main.c:254
				{
					mode=0;
 80015ba:	4b12      	ldr	r3, [pc, #72]	; (8001604 <main+0x118>)
 80015bc:	2200      	movs	r2, #0
 80015be:	601a      	str	r2, [r3, #0]
D:\Software\workspace_2\XMC4500_IO_Flat\Debug/../src/main.c:252
		{
			cb_get(&rec);
			if(rec=='0' && control==1)
			{
				mode++;
				if(mode==4)
 80015c0:	e014      	b.n	80015ec <main+0x100>
D:\Software\workspace_2\XMC4500_IO_Flat\Debug/../src/main.c:257
				{
					mode=0;
				}
			}
			else if(rec=='1' && control==1)
 80015c2:	79fb      	ldrb	r3, [r7, #7]
 80015c4:	2b31      	cmp	r3, #49	; 0x31
 80015c6:	d107      	bne.n	80015d8 <main+0xec>
D:\Software\workspace_2\XMC4500_IO_Flat\Debug/../src/main.c:257 (discriminator 1)
 80015c8:	4b0d      	ldr	r3, [pc, #52]	; (8001600 <main+0x114>)
 80015ca:	681b      	ldr	r3, [r3, #0]
 80015cc:	2b01      	cmp	r3, #1
 80015ce:	d103      	bne.n	80015d8 <main+0xec>
D:\Software\workspace_2\XMC4500_IO_Flat\Debug/../src/main.c:259
			{
				control=0;
 80015d0:	4b0b      	ldr	r3, [pc, #44]	; (8001600 <main+0x114>)
 80015d2:	2200      	movs	r2, #0
 80015d4:	601a      	str	r2, [r3, #0]
 80015d6:	e009      	b.n	80015ec <main+0x100>
D:\Software\workspace_2\XMC4500_IO_Flat\Debug/../src/main.c:261
			}
			else if(rec=='1' && control==0)
 80015d8:	79fb      	ldrb	r3, [r7, #7]
 80015da:	2b31      	cmp	r3, #49	; 0x31
 80015dc:	d1d5      	bne.n	800158a <main+0x9e>
D:\Software\workspace_2\XMC4500_IO_Flat\Debug/../src/main.c:261 (discriminator 1)
 80015de:	4b08      	ldr	r3, [pc, #32]	; (8001600 <main+0x114>)
 80015e0:	681b      	ldr	r3, [r3, #0]
 80015e2:	2b00      	cmp	r3, #0
 80015e4:	d1d1      	bne.n	800158a <main+0x9e>
D:\Software\workspace_2\XMC4500_IO_Flat\Debug/../src/main.c:263
			{
				control=1;
 80015e6:	4b06      	ldr	r3, [pc, #24]	; (8001600 <main+0x114>)
 80015e8:	2201      	movs	r2, #1
 80015ea:	601a      	str	r2, [r3, #0]
D:\Software\workspace_2\XMC4500_IO_Flat\Debug/../src/main.c:267 (discriminator 1)
			}

		}
	}
 80015ec:	e7cd      	b.n	800158a <main+0x9e>
 80015ee:	bf00      	nop
 80015f0:	48028100 	.word	0x48028100
 80015f4:	20000870 	.word	0x20000870
 80015f8:	10624dd3 	.word	0x10624dd3
 80015fc:	2000086c 	.word	0x2000086c
 8001600:	20000874 	.word	0x20000874
 8001604:	2000084c 	.word	0x2000084c

08001608 <__libc_init_array>:
__libc_init_array():
 8001608:	b570      	push	{r4, r5, r6, lr}
 800160a:	4e0f      	ldr	r6, [pc, #60]	; (8001648 <__libc_init_array+0x40>)
 800160c:	4d0f      	ldr	r5, [pc, #60]	; (800164c <__libc_init_array+0x44>)
 800160e:	1b76      	subs	r6, r6, r5
 8001610:	10b6      	asrs	r6, r6, #2
 8001612:	bf18      	it	ne
 8001614:	2400      	movne	r4, #0
 8001616:	d005      	beq.n	8001624 <__libc_init_array+0x1c>
 8001618:	3401      	adds	r4, #1
 800161a:	f855 3b04 	ldr.w	r3, [r5], #4
 800161e:	4798      	blx	r3
 8001620:	42a6      	cmp	r6, r4
 8001622:	d1f9      	bne.n	8001618 <__libc_init_array+0x10>
 8001624:	4e0a      	ldr	r6, [pc, #40]	; (8001650 <__libc_init_array+0x48>)
 8001626:	4d0b      	ldr	r5, [pc, #44]	; (8001654 <__libc_init_array+0x4c>)
 8001628:	1b76      	subs	r6, r6, r5
 800162a:	f7ff fd31 	bl	8001090 <_init>
 800162e:	10b6      	asrs	r6, r6, #2
 8001630:	bf18      	it	ne
 8001632:	2400      	movne	r4, #0
 8001634:	d006      	beq.n	8001644 <__libc_init_array+0x3c>
 8001636:	3401      	adds	r4, #1
 8001638:	f855 3b04 	ldr.w	r3, [r5], #4
 800163c:	4798      	blx	r3
 800163e:	42a6      	cmp	r6, r4
 8001640:	d1f9      	bne.n	8001636 <__libc_init_array+0x2e>
 8001642:	bd70      	pop	{r4, r5, r6, pc}
 8001644:	bd70      	pop	{r4, r5, r6, pc}
 8001646:	bf00      	nop
 8001648:	08001658 	.word	0x08001658
 800164c:	08001658 	.word	0x08001658
 8001650:	08001658 	.word	0x08001658
 8001654:	08001658 	.word	0x08001658
